
dhrystone.riscv:     file format elf32-littleriscv


Disassembly of section .note.gnu.build-id:

80000000 <.note.gnu.build-id>:
80000000:	0004                	addi	s1,sp,0
80000002:	0000                	unimp
80000004:	0014                	addi	a3,sp,0
80000006:	0000                	unimp
80000008:	00000003          	lb	zero,0(zero) # 0 <_tbss_end>
8000000c:	00554e47          	fmsub.s	ft8,fa0,ft5,ft0,rmm
80000010:	997e                	add	s2,s2,t6
80000012:	80b5                	srli	s1,s1,0xd
80000014:	83c5                	srli	a5,a5,0x11
80000016:	c2b9                	beqz	a3,8000005c <_start+0x38>
80000018:	2f62                	fld	ft10,24(sp)
8000001a:	4c9d                	li	s9,7
8000001c:	3d43a457          	0x3d43a457
80000020:	c7327ac3          	0xc7327ac3

Disassembly of section .text.init:

80000024 <_start>:
80000024:	00000093          	li	ra,0
80000028:	00000113          	li	sp,0
8000002c:	00000193          	li	gp,0
80000030:	00000213          	li	tp,0
80000034:	00000293          	li	t0,0
80000038:	00000313          	li	t1,0
8000003c:	00000393          	li	t2,0
80000040:	00000413          	li	s0,0
80000044:	00000493          	li	s1,0
80000048:	00000513          	li	a0,0
8000004c:	00000593          	li	a1,0
80000050:	00000613          	li	a2,0
80000054:	00000693          	li	a3,0
80000058:	00000713          	li	a4,0
8000005c:	00000793          	li	a5,0
80000060:	00000813          	li	a6,0
80000064:	00000893          	li	a7,0
80000068:	00000913          	li	s2,0
8000006c:	00000993          	li	s3,0
80000070:	00000a13          	li	s4,0
80000074:	00000a93          	li	s5,0
80000078:	00000b13          	li	s6,0
8000007c:	00000b93          	li	s7,0
80000080:	00000c13          	li	s8,0
80000084:	00000c93          	li	s9,0
80000088:	00000d13          	li	s10,0
8000008c:	00000d93          	li	s11,0
80000090:	00000e13          	li	t3,0
80000094:	00000e93          	li	t4,0
80000098:	00000f13          	li	t5,0
8000009c:	00000f93          	li	t6,0
800000a0:	0001e2b7          	lui	t0,0x1e
800000a4:	3002a073          	csrs	mstatus,t0
800000a8:	00100293          	li	t0,1
800000ac:	01f29293          	slli	t0,t0,0x1f
800000b0:	0002ca63          	bltz	t0,800000c4 <_start+0xa0>
800000b4:	00100513          	li	a0,1
800000b8:	00001297          	auipc	t0,0x1
800000bc:	f4a2a423          	sw	a0,-184(t0) # 80001000 <tohost>
800000c0:	ff5ff06f          	j	800000b4 <_start+0x90>
800000c4:	00000297          	auipc	t0,0x0
800000c8:	04428293          	addi	t0,t0,68 # 80000108 <trap_entry>
800000cc:	30529073          	csrw	mtvec,t0
800000d0:	00004197          	auipc	gp,0x4
800000d4:	8f818193          	addi	gp,gp,-1800 # 800039c8 <__global_pointer$>
800000d8:	00003217          	auipc	tp,0x3
800000dc:	20720213          	addi	tp,tp,519 # 800032df <_end+0x3f>
800000e0:	fc027213          	andi	tp,tp,-64
800000e4:	f1402573          	csrr	a0,mhartid
800000e8:	00100593          	li	a1,1
800000ec:	00b57063          	bleu	a1,a0,800000ec <_start+0xc8>
800000f0:	00c51613          	slli	a2,a0,0xc
800000f4:	00c20233          	add	tp,tp,a2
800000f8:	00150113          	addi	sp,a0,1
800000fc:	00c11113          	slli	sp,sp,0xc
80000100:	00410133          	add	sp,sp,tp
80000104:	5ad0106f          	j	80001eb0 <_init>

80000108 <trap_entry>:
80000108:	ef010113          	addi	sp,sp,-272
8000010c:	00112223          	sw	ra,4(sp)
80000110:	00212423          	sw	sp,8(sp)
80000114:	00312623          	sw	gp,12(sp)
80000118:	00412823          	sw	tp,16(sp)
8000011c:	00512a23          	sw	t0,20(sp)
80000120:	00612c23          	sw	t1,24(sp)
80000124:	00712e23          	sw	t2,28(sp)
80000128:	02812023          	sw	s0,32(sp)
8000012c:	02912223          	sw	s1,36(sp)
80000130:	02a12423          	sw	a0,40(sp)
80000134:	02b12623          	sw	a1,44(sp)
80000138:	02c12823          	sw	a2,48(sp)
8000013c:	02d12a23          	sw	a3,52(sp)
80000140:	02e12c23          	sw	a4,56(sp)
80000144:	02f12e23          	sw	a5,60(sp)
80000148:	05012023          	sw	a6,64(sp)
8000014c:	05112223          	sw	a7,68(sp)
80000150:	05212423          	sw	s2,72(sp)
80000154:	05312623          	sw	s3,76(sp)
80000158:	05412823          	sw	s4,80(sp)
8000015c:	05512a23          	sw	s5,84(sp)
80000160:	05612c23          	sw	s6,88(sp)
80000164:	05712e23          	sw	s7,92(sp)
80000168:	07812023          	sw	s8,96(sp)
8000016c:	07912223          	sw	s9,100(sp)
80000170:	07a12423          	sw	s10,104(sp)
80000174:	07b12623          	sw	s11,108(sp)
80000178:	07c12823          	sw	t3,112(sp)
8000017c:	07d12a23          	sw	t4,116(sp)
80000180:	07e12c23          	sw	t5,120(sp)
80000184:	07f12e23          	sw	t6,124(sp)
80000188:	34202573          	csrr	a0,mcause
8000018c:	341025f3          	csrr	a1,mepc
80000190:	00010613          	mv	a2,sp
80000194:	3c4010ef          	jal	80001558 <handle_trap>
80000198:	34151073          	csrw	mepc,a0
8000019c:	000022b7          	lui	t0,0x2
800001a0:	80028293          	addi	t0,t0,-2048 # 1800 <_tbss_end+0x1800>
800001a4:	3002a073          	csrs	mstatus,t0
800001a8:	00412083          	lw	ra,4(sp)
800001ac:	00812103          	lw	sp,8(sp)
800001b0:	00c12183          	lw	gp,12(sp)
800001b4:	01012203          	lw	tp,16(sp)
800001b8:	01412283          	lw	t0,20(sp)
800001bc:	01812303          	lw	t1,24(sp)
800001c0:	01c12383          	lw	t2,28(sp)
800001c4:	02012403          	lw	s0,32(sp)
800001c8:	02412483          	lw	s1,36(sp)
800001cc:	02812503          	lw	a0,40(sp)
800001d0:	02c12583          	lw	a1,44(sp)
800001d4:	03012603          	lw	a2,48(sp)
800001d8:	03412683          	lw	a3,52(sp)
800001dc:	03812703          	lw	a4,56(sp)
800001e0:	03c12783          	lw	a5,60(sp)
800001e4:	04012803          	lw	a6,64(sp)
800001e8:	04412883          	lw	a7,68(sp)
800001ec:	04812903          	lw	s2,72(sp)
800001f0:	04c12983          	lw	s3,76(sp)
800001f4:	05012a03          	lw	s4,80(sp)
800001f8:	05412a83          	lw	s5,84(sp)
800001fc:	05812b03          	lw	s6,88(sp)
80000200:	05c12b83          	lw	s7,92(sp)
80000204:	06012c03          	lw	s8,96(sp)
80000208:	06412c83          	lw	s9,100(sp)
8000020c:	06812d03          	lw	s10,104(sp)
80000210:	06c12d83          	lw	s11,108(sp)
80000214:	07012e03          	lw	t3,112(sp)
80000218:	07412e83          	lw	t4,116(sp)
8000021c:	07812f03          	lw	t5,120(sp)
80000220:	07c12f83          	lw	t6,124(sp)
80000224:	11010113          	addi	sp,sp,272
80000228:	30200073          	mret

Disassembly of section .tohost:

80001000 <tohost>:
80001000:	0000                	unimp
80001002:	0000                	unimp
80001004:	0000                	unimp
80001006:	0000                	unimp
80001008:	0000                	unimp
8000100a:	0000                	unimp
8000100c:	0000                	unimp
8000100e:	0000                	unimp
80001010:	0000                	unimp
80001012:	0000                	unimp
80001014:	0000                	unimp
80001016:	0000                	unimp
80001018:	0000                	unimp
8000101a:	0000                	unimp
8000101c:	0000                	unimp
8000101e:	0000                	unimp
80001020:	0000                	unimp
80001022:	0000                	unimp
80001024:	0000                	unimp
80001026:	0000                	unimp
80001028:	0000                	unimp
8000102a:	0000                	unimp
8000102c:	0000                	unimp
8000102e:	0000                	unimp
80001030:	0000                	unimp
80001032:	0000                	unimp
80001034:	0000                	unimp
80001036:	0000                	unimp
80001038:	0000                	unimp
8000103a:	0000                	unimp
8000103c:	0000                	unimp
8000103e:	0000                	unimp

80001040 <fromhost>:
80001040:	0000                	unimp
80001042:	0000                	unimp
80001044:	0000                	unimp
80001046:	0000                	unimp

Disassembly of section .text:

80001048 <_putchar>:
80001048:	80001737          	lui	a4,0x80001
8000104c:	00072783          	lw	a5,0(a4) # 80001000 <__global_pointer$+0xffffd638>
80001050:	fe07cee3          	bltz	a5,8000104c <_putchar+0x4>
80001054:	00a72023          	sw	a0,0(a4)
80001058:	80001737          	lui	a4,0x80001
8000105c:	00072783          	lw	a5,0(a4) # 80001000 <__global_pointer$+0xffffd638>
80001060:	fe07cee3          	bltz	a5,8000105c <_putchar+0x14>
80001064:	00008067          	ret

80001068 <_puts>:
80001068:	ff010113          	addi	sp,sp,-16
8000106c:	00812423          	sw	s0,8(sp)
80001070:	00112623          	sw	ra,12(sp)
80001074:	00050413          	mv	s0,a0
80001078:	00054503          	lbu	a0,0(a0)
8000107c:	00050a63          	beqz	a0,80001090 <_puts+0x28>
80001080:	00140413          	addi	s0,s0,1
80001084:	fc5ff0ef          	jal	80001048 <_putchar>
80001088:	00044503          	lbu	a0,0(s0)
8000108c:	fe051ae3          	bnez	a0,80001080 <_puts+0x18>
80001090:	00c12083          	lw	ra,12(sp)
80001094:	00812403          	lw	s0,8(sp)
80001098:	01010113          	addi	sp,sp,16
8000109c:	00008067          	ret

800010a0 <convert>:
800010a0:	fe010113          	addi	sp,sp,-32
800010a4:	00812c23          	sw	s0,24(sp)
800010a8:	00912a23          	sw	s1,20(sp)
800010ac:	01212823          	sw	s2,16(sp)
800010b0:	01312623          	sw	s3,12(sp)
800010b4:	01412423          	sw	s4,8(sp)
800010b8:	00112e23          	sw	ra,28(sp)
800010bc:	00050493          	mv	s1,a0
800010c0:	00058413          	mv	s0,a1
800010c4:	00060993          	mv	s3,a2
800010c8:	00002297          	auipc	t0,0x2
800010cc:	1c028ba3          	sb	zero,471(t0) # 8000329f <buffer.1440+0xc7>
800010d0:	00002917          	auipc	s2,0x2
800010d4:	1cf90913          	addi	s2,s2,463 # 8000329f <buffer.1440+0xc7>
800010d8:	00002a17          	auipc	s4,0x2
800010dc:	ca0a0a13          	addi	s4,s4,-864 # 80002d78 <Representation.1439>
800010e0:	00098613          	mv	a2,s3
800010e4:	00000693          	li	a3,0
800010e8:	00048513          	mv	a0,s1
800010ec:	00040593          	mv	a1,s0
800010f0:	7e4010ef          	jal	800028d4 <__umoddi3>
800010f4:	00aa0533          	add	a0,s4,a0
800010f8:	00054783          	lbu	a5,0(a0)
800010fc:	fff90913          	addi	s2,s2,-1
80001100:	00048513          	mv	a0,s1
80001104:	00040593          	mv	a1,s0
80001108:	00f90023          	sb	a5,0(s2)
8000110c:	00098613          	mv	a2,s3
80001110:	00000693          	li	a3,0
80001114:	34c010ef          	jal	80002460 <__udivdi3>
80001118:	00a5e7b3          	or	a5,a1,a0
8000111c:	00050493          	mv	s1,a0
80001120:	00058413          	mv	s0,a1
80001124:	fa079ee3          	bnez	a5,800010e0 <convert+0x40>
80001128:	01c12083          	lw	ra,28(sp)
8000112c:	00090513          	mv	a0,s2
80001130:	01812403          	lw	s0,24(sp)
80001134:	01412483          	lw	s1,20(sp)
80001138:	01012903          	lw	s2,16(sp)
8000113c:	00c12983          	lw	s3,12(sp)
80001140:	00812a03          	lw	s4,8(sp)
80001144:	02010113          	addi	sp,sp,32
80001148:	00008067          	ret

8000114c <putchar>:
8000114c:	80001737          	lui	a4,0x80001
80001150:	00072783          	lw	a5,0(a4) # 80001000 <__global_pointer$+0xffffd638>
80001154:	fe07cee3          	bltz	a5,80001150 <putchar+0x4>
80001158:	0ff57513          	andi	a0,a0,255
8000115c:	00a72023          	sw	a0,0(a4)
80001160:	80001737          	lui	a4,0x80001
80001164:	00072783          	lw	a5,0(a4) # 80001000 <__global_pointer$+0xffffd638>
80001168:	fe07cee3          	bltz	a5,80001164 <putchar+0x18>
8000116c:	00000513          	li	a0,0
80001170:	00008067          	ret

80001174 <getuint>:
80001174:	00100793          	li	a5,1
80001178:	00050713          	mv	a4,a0
8000117c:	02b7ca63          	blt	a5,a1,800011b0 <getuint+0x3c>
80001180:	00052783          	lw	a5,0(a0)
80001184:	00059c63          	bnez	a1,8000119c <getuint+0x28>
80001188:	0007a503          	lw	a0,0(a5)
8000118c:	00478793          	addi	a5,a5,4
80001190:	00000593          	li	a1,0
80001194:	00f72023          	sw	a5,0(a4)
80001198:	00008067          	ret
8000119c:	00478693          	addi	a3,a5,4
800011a0:	00d52023          	sw	a3,0(a0)
800011a4:	00000593          	li	a1,0
800011a8:	0007a503          	lw	a0,0(a5)
800011ac:	00008067          	ret
800011b0:	00052783          	lw	a5,0(a0)
800011b4:	00778793          	addi	a5,a5,7
800011b8:	ff87f793          	andi	a5,a5,-8
800011bc:	00878693          	addi	a3,a5,8
800011c0:	00d52023          	sw	a3,0(a0)
800011c4:	0047a583          	lw	a1,4(a5)
800011c8:	0007a503          	lw	a0,0(a5)
800011cc:	00008067          	ret

800011d0 <getint>:
800011d0:	00100793          	li	a5,1
800011d4:	00050713          	mv	a4,a0
800011d8:	00b7ce63          	blt	a5,a1,800011f4 <getint+0x24>
800011dc:	00052783          	lw	a5,0(a0)
800011e0:	0007a503          	lw	a0,0(a5)
800011e4:	00478793          	addi	a5,a5,4
800011e8:	00f72023          	sw	a5,0(a4)
800011ec:	41f55593          	srai	a1,a0,0x1f
800011f0:	00008067          	ret
800011f4:	00052783          	lw	a5,0(a0)
800011f8:	00778793          	addi	a5,a5,7
800011fc:	ff87f793          	andi	a5,a5,-8
80001200:	00878693          	addi	a3,a5,8
80001204:	00d52023          	sw	a3,0(a0)
80001208:	0047a583          	lw	a1,4(a5)
8000120c:	0007a503          	lw	a0,0(a5)
80001210:	00008067          	ret

80001214 <sprintf_putch.2813>:
80001214:	0005a783          	lw	a5,0(a1)
80001218:	00a78023          	sb	a0,0(a5)
8000121c:	0005a783          	lw	a5,0(a1)
80001220:	00178793          	addi	a5,a5,1
80001224:	00f5a023          	sw	a5,0(a1)
80001228:	00008067          	ret

8000122c <printnum.constprop.2>:
8000122c:	ed010113          	addi	sp,sp,-304
80001230:	11812423          	sw	s8,264(sp)
80001234:	00068c13          	mv	s8,a3
80001238:	00000693          	li	a3,0
8000123c:	12812423          	sw	s0,296(sp)
80001240:	13212023          	sw	s2,288(sp)
80001244:	11512a23          	sw	s5,276(sp)
80001248:	11612823          	sw	s6,272(sp)
8000124c:	11712623          	sw	s7,268(sp)
80001250:	12112623          	sw	ra,300(sp)
80001254:	12912223          	sw	s1,292(sp)
80001258:	11312e23          	sw	s3,284(sp)
8000125c:	11412c23          	sw	s4,280(sp)
80001260:	00050913          	mv	s2,a0
80001264:	00058413          	mv	s0,a1
80001268:	00060a93          	mv	s5,a2
8000126c:	00070b93          	mv	s7,a4
80001270:	664010ef          	jal	800028d4 <__umoddi3>
80001274:	00a12023          	sw	a0,0(sp)
80001278:	00000b13          	li	s6,0
8000127c:	0e040263          	beqz	s0,80001360 <printnum.constprop.2+0x134>
80001280:	00410993          	addi	s3,sp,4
80001284:	00100493          	li	s1,1
80001288:	000a8613          	mv	a2,s5
8000128c:	00000693          	li	a3,0
80001290:	00090513          	mv	a0,s2
80001294:	00040593          	mv	a1,s0
80001298:	1c8010ef          	jal	80002460 <__udivdi3>
8000129c:	000a8613          	mv	a2,s5
800012a0:	00000693          	li	a3,0
800012a4:	00050913          	mv	s2,a0
800012a8:	00058413          	mv	s0,a1
800012ac:	628010ef          	jal	800028d4 <__umoddi3>
800012b0:	00a9a023          	sw	a0,0(s3)
800012b4:	00148a13          	addi	s4,s1,1
800012b8:	00498993          	addi	s3,s3,4
800012bc:	008b0663          	beq	s6,s0,800012c8 <printnum.constprop.2+0x9c>
800012c0:	000a0493          	mv	s1,s4
800012c4:	fc5ff06f          	j	80001288 <printnum.constprop.2+0x5c>
800012c8:	ff597ce3          	bleu	s5,s2,800012c0 <printnum.constprop.2+0x94>
800012cc:	fffc0413          	addi	s0,s8,-1
800012d0:	038a5063          	ble	s8,s4,800012f0 <printnum.constprop.2+0xc4>
800012d4:	00000593          	li	a1,0
800012d8:	000b8513          	mv	a0,s7
800012dc:	fff40413          	addi	s0,s0,-1
800012e0:	e6dff0ef          	jal	8000114c <putchar>
800012e4:	00140793          	addi	a5,s0,1
800012e8:	fefa46e3          	blt	s4,a5,800012d4 <printnum.constprop.2+0xa8>
800012ec:	05405263          	blez	s4,80001330 <printnum.constprop.2+0x104>
800012f0:	00249413          	slli	s0,s1,0x2
800012f4:	00810433          	add	s0,sp,s0
800012f8:	00900993          	li	s3,9
800012fc:	03000913          	li	s2,48
80001300:	05700a13          	li	s4,87
80001304:	00042783          	lw	a5,0(s0)
80001308:	00000593          	li	a1,0
8000130c:	fff48493          	addi	s1,s1,-1
80001310:	00090513          	mv	a0,s2
80001314:	00f9f463          	bleu	a5,s3,8000131c <printnum.constprop.2+0xf0>
80001318:	000a0513          	mv	a0,s4
8000131c:	00a78533          	add	a0,a5,a0
80001320:	e2dff0ef          	jal	8000114c <putchar>
80001324:	00148793          	addi	a5,s1,1
80001328:	ffc40413          	addi	s0,s0,-4
8000132c:	fcf04ce3          	bgtz	a5,80001304 <printnum.constprop.2+0xd8>
80001330:	12c12083          	lw	ra,300(sp)
80001334:	12812403          	lw	s0,296(sp)
80001338:	12412483          	lw	s1,292(sp)
8000133c:	12012903          	lw	s2,288(sp)
80001340:	11c12983          	lw	s3,284(sp)
80001344:	11812a03          	lw	s4,280(sp)
80001348:	11412a83          	lw	s5,276(sp)
8000134c:	11012b03          	lw	s6,272(sp)
80001350:	10c12b83          	lw	s7,268(sp)
80001354:	10812c03          	lw	s8,264(sp)
80001358:	13010113          	addi	sp,sp,304
8000135c:	00008067          	ret
80001360:	f35970e3          	bleu	s5,s2,80001280 <printnum.constprop.2+0x54>
80001364:	00100a13          	li	s4,1
80001368:	fffc0413          	addi	s0,s8,-1
8000136c:	00000493          	li	s1,0
80001370:	f78a42e3          	blt	s4,s8,800012d4 <printnum.constprop.2+0xa8>
80001374:	f7dff06f          	j	800012f0 <printnum.constprop.2+0xc4>

80001378 <printnum.constprop.3>:
80001378:	ed010113          	addi	sp,sp,-304
8000137c:	12812423          	sw	s0,296(sp)
80001380:	13212023          	sw	s2,288(sp)
80001384:	00068413          	mv	s0,a3
80001388:	00060913          	mv	s2,a2
8000138c:	11412c23          	sw	s4,280(sp)
80001390:	00070613          	mv	a2,a4
80001394:	00050a13          	mv	s4,a0
80001398:	00000693          	li	a3,0
8000139c:	00090513          	mv	a0,s2
800013a0:	00040593          	mv	a1,s0
800013a4:	11612823          	sw	s6,272(sp)
800013a8:	11712623          	sw	s7,268(sp)
800013ac:	11812423          	sw	s8,264(sp)
800013b0:	11912223          	sw	s9,260(sp)
800013b4:	12112623          	sw	ra,300(sp)
800013b8:	12912223          	sw	s1,292(sp)
800013bc:	11312e23          	sw	s3,284(sp)
800013c0:	11512a23          	sw	s5,276(sp)
800013c4:	00070b13          	mv	s6,a4
800013c8:	00078c93          	mv	s9,a5
800013cc:	00080c13          	mv	s8,a6
800013d0:	504010ef          	jal	800028d4 <__umoddi3>
800013d4:	00a12023          	sw	a0,0(sp)
800013d8:	00000b93          	li	s7,0
800013dc:	0e040463          	beqz	s0,800014c4 <printnum.constprop.3+0x14c>
800013e0:	00410993          	addi	s3,sp,4
800013e4:	00100493          	li	s1,1
800013e8:	000b0613          	mv	a2,s6
800013ec:	00000693          	li	a3,0
800013f0:	00090513          	mv	a0,s2
800013f4:	00040593          	mv	a1,s0
800013f8:	068010ef          	jal	80002460 <__udivdi3>
800013fc:	000b0613          	mv	a2,s6
80001400:	00000693          	li	a3,0
80001404:	00050913          	mv	s2,a0
80001408:	00058413          	mv	s0,a1
8000140c:	4c8010ef          	jal	800028d4 <__umoddi3>
80001410:	00a9a023          	sw	a0,0(s3)
80001414:	00148a93          	addi	s5,s1,1
80001418:	00498993          	addi	s3,s3,4
8000141c:	008b8663          	beq	s7,s0,80001428 <printnum.constprop.3+0xb0>
80001420:	000a8493          	mv	s1,s5
80001424:	fc5ff06f          	j	800013e8 <printnum.constprop.3+0x70>
80001428:	ff697ce3          	bleu	s6,s2,80001420 <printnum.constprop.3+0xa8>
8000142c:	fffc8413          	addi	s0,s9,-1
80001430:	039ad063          	ble	s9,s5,80001450 <printnum.constprop.3+0xd8>
80001434:	000a0593          	mv	a1,s4
80001438:	000c0513          	mv	a0,s8
8000143c:	fff40413          	addi	s0,s0,-1
80001440:	dd5ff0ef          	jal	80001214 <sprintf_putch.2813>
80001444:	00140793          	addi	a5,s0,1
80001448:	fefac6e3          	blt	s5,a5,80001434 <printnum.constprop.3+0xbc>
8000144c:	05505263          	blez	s5,80001490 <printnum.constprop.3+0x118>
80001450:	00249413          	slli	s0,s1,0x2
80001454:	00810433          	add	s0,sp,s0
80001458:	00900993          	li	s3,9
8000145c:	03000913          	li	s2,48
80001460:	05700a93          	li	s5,87
80001464:	00042783          	lw	a5,0(s0)
80001468:	000a0593          	mv	a1,s4
8000146c:	fff48493          	addi	s1,s1,-1
80001470:	00090513          	mv	a0,s2
80001474:	00f9f463          	bleu	a5,s3,8000147c <printnum.constprop.3+0x104>
80001478:	000a8513          	mv	a0,s5
8000147c:	00a78533          	add	a0,a5,a0
80001480:	d95ff0ef          	jal	80001214 <sprintf_putch.2813>
80001484:	00148793          	addi	a5,s1,1
80001488:	ffc40413          	addi	s0,s0,-4
8000148c:	fcf04ce3          	bgtz	a5,80001464 <printnum.constprop.3+0xec>
80001490:	12c12083          	lw	ra,300(sp)
80001494:	12812403          	lw	s0,296(sp)
80001498:	12412483          	lw	s1,292(sp)
8000149c:	12012903          	lw	s2,288(sp)
800014a0:	11c12983          	lw	s3,284(sp)
800014a4:	11812a03          	lw	s4,280(sp)
800014a8:	11412a83          	lw	s5,276(sp)
800014ac:	11012b03          	lw	s6,272(sp)
800014b0:	10c12b83          	lw	s7,268(sp)
800014b4:	10812c03          	lw	s8,264(sp)
800014b8:	10412c83          	lw	s9,260(sp)
800014bc:	13010113          	addi	sp,sp,304
800014c0:	00008067          	ret
800014c4:	f1697ee3          	bleu	s6,s2,800013e0 <printnum.constprop.3+0x68>
800014c8:	00100a93          	li	s5,1
800014cc:	fffc8413          	addi	s0,s9,-1
800014d0:	00000493          	li	s1,0
800014d4:	f79ac0e3          	blt	s5,s9,80001434 <printnum.constprop.3+0xbc>
800014d8:	f79ff06f          	j	80001450 <printnum.constprop.3+0xd8>

800014dc <setStats>:
800014dc:	b00027f3          	csrr	a5,mcycle
800014e0:	02051063          	bnez	a0,80001500 <setStats+0x24>
800014e4:	00002717          	auipc	a4,0x2
800014e8:	cec72703          	lw	a4,-788(a4) # 800031d0 <counters>
800014ec:	40e787b3          	sub	a5,a5,a4
800014f0:	00002717          	auipc	a4,0x2
800014f4:	c5c70713          	addi	a4,a4,-932 # 8000314c <__clz_tab+0x110>
800014f8:	00002297          	auipc	t0,0x2
800014fc:	cce2a823          	sw	a4,-816(t0) # 800031c8 <counter_names>
80001500:	00002717          	auipc	a4,0x2
80001504:	cd070713          	addi	a4,a4,-816 # 800031d0 <counters>
80001508:	00f72023          	sw	a5,0(a4)
8000150c:	b02027f3          	csrr	a5,minstret
80001510:	02051063          	bnez	a0,80001530 <setStats+0x54>
80001514:	00002697          	auipc	a3,0x2
80001518:	cc06a683          	lw	a3,-832(a3) # 800031d4 <counters+0x4>
8000151c:	40d787b3          	sub	a5,a5,a3
80001520:	00002697          	auipc	a3,0x2
80001524:	c3468693          	addi	a3,a3,-972 # 80003154 <__clz_tab+0x118>
80001528:	00002297          	auipc	t0,0x2
8000152c:	cad2a223          	sw	a3,-860(t0) # 800031cc <counter_names+0x4>
80001530:	00f72223          	sw	a5,4(a4)
80001534:	00008067          	ret

80001538 <tohost_exit>:
80001538:	00151513          	slli	a0,a0,0x1
8000153c:	00000697          	auipc	a3,0x0
80001540:	ac468693          	addi	a3,a3,-1340 # 80001000 <tohost>
80001544:	00156713          	ori	a4,a0,1
80001548:	00000793          	li	a5,0
8000154c:	00e6a023          	sw	a4,0(a3)
80001550:	00f6a223          	sw	a5,4(a3)
80001554:	0000006f          	j	80001554 <tohost_exit+0x1c>

80001558 <handle_trap>:
80001558:	ff010113          	addi	sp,sp,-16
8000155c:	53900513          	li	a0,1337
80001560:	00112623          	sw	ra,12(sp)
80001564:	fd5ff0ef          	jal	80001538 <tohost_exit>

80001568 <exit>:
80001568:	ff010113          	addi	sp,sp,-16
8000156c:	00112623          	sw	ra,12(sp)
80001570:	fc9ff0ef          	jal	80001538 <tohost_exit>

80001574 <abort>:
80001574:	ff010113          	addi	sp,sp,-16
80001578:	08600513          	li	a0,134
8000157c:	00112623          	sw	ra,12(sp)
80001580:	fe9ff0ef          	jal	80001568 <exit>

80001584 <thread_entry>:
80001584:	00050463          	beqz	a0,8000158c <thread_entry+0x8>
80001588:	0000006f          	j	80001588 <thread_entry+0x4>
8000158c:	00008067          	ret

80001590 <memcpy>:
80001590:	00c5e7b3          	or	a5,a1,a2
80001594:	00a7e7b3          	or	a5,a5,a0
80001598:	0037f793          	andi	a5,a5,3
8000159c:	0a078863          	beqz	a5,8000164c <memcpy+0xbc>
800015a0:	00c50833          	add	a6,a0,a2
800015a4:	0f057663          	bleu	a6,a0,80001690 <memcpy+0x100>
800015a8:	00458713          	addi	a4,a1,4
800015ac:	00450693          	addi	a3,a0,4
800015b0:	00e53733          	sltu	a4,a0,a4
800015b4:	00d5b6b3          	sltu	a3,a1,a3
800015b8:	00b567b3          	or	a5,a0,a1
800015bc:	00174713          	xori	a4,a4,1
800015c0:	0016c693          	xori	a3,a3,1
800015c4:	0037f793          	andi	a5,a5,3
800015c8:	00d76733          	or	a4,a4,a3
800015cc:	0017b793          	seqz	a5,a5
800015d0:	00e7f7b3          	and	a5,a5,a4
800015d4:	08078e63          	beqz	a5,80001670 <memcpy+0xe0>
800015d8:	00a63793          	sltiu	a5,a2,10
800015dc:	08079a63          	bnez	a5,80001670 <memcpy+0xe0>
800015e0:	ffc60793          	addi	a5,a2,-4
800015e4:	0027d793          	srli	a5,a5,0x2
800015e8:	00178793          	addi	a5,a5,1
800015ec:	00279313          	slli	t1,a5,0x2
800015f0:	00050893          	mv	a7,a0
800015f4:	00058693          	mv	a3,a1
800015f8:	00000713          	li	a4,0
800015fc:	0006ae03          	lw	t3,0(a3)
80001600:	00170713          	addi	a4,a4,1
80001604:	00468693          	addi	a3,a3,4
80001608:	01c8a023          	sw	t3,0(a7)
8000160c:	00488893          	addi	a7,a7,4
80001610:	fef766e3          	bltu	a4,a5,800015fc <memcpy+0x6c>
80001614:	006585b3          	add	a1,a1,t1
80001618:	006507b3          	add	a5,a0,t1
8000161c:	06660663          	beq	a2,t1,80001688 <memcpy+0xf8>
80001620:	0005c683          	lbu	a3,0(a1)
80001624:	00178713          	addi	a4,a5,1
80001628:	00d78023          	sb	a3,0(a5)
8000162c:	05077e63          	bleu	a6,a4,80001688 <memcpy+0xf8>
80001630:	0015c683          	lbu	a3,1(a1)
80001634:	00278713          	addi	a4,a5,2
80001638:	00d780a3          	sb	a3,1(a5)
8000163c:	05077863          	bleu	a6,a4,8000168c <memcpy+0xfc>
80001640:	0025c703          	lbu	a4,2(a1)
80001644:	00e78123          	sb	a4,2(a5)
80001648:	00008067          	ret
8000164c:	00c50633          	add	a2,a0,a2
80001650:	02c57c63          	bleu	a2,a0,80001688 <memcpy+0xf8>
80001654:	00050793          	mv	a5,a0
80001658:	00458593          	addi	a1,a1,4
8000165c:	ffc5a703          	lw	a4,-4(a1)
80001660:	00478793          	addi	a5,a5,4
80001664:	fee7ae23          	sw	a4,-4(a5)
80001668:	fec7e8e3          	bltu	a5,a2,80001658 <memcpy+0xc8>
8000166c:	00008067          	ret
80001670:	00050793          	mv	a5,a0
80001674:	00158593          	addi	a1,a1,1
80001678:	fff5c703          	lbu	a4,-1(a1)
8000167c:	00178793          	addi	a5,a5,1
80001680:	fee78fa3          	sb	a4,-1(a5)
80001684:	fef818e3          	bne	a6,a5,80001674 <memcpy+0xe4>
80001688:	00008067          	ret
8000168c:	00008067          	ret
80001690:	00008067          	ret

80001694 <memset>:
80001694:	ff010113          	addi	sp,sp,-16
80001698:	00c567b3          	or	a5,a0,a2
8000169c:	00812423          	sw	s0,8(sp)
800016a0:	00112623          	sw	ra,12(sp)
800016a4:	0037f793          	andi	a5,a5,3
800016a8:	00050413          	mv	s0,a0
800016ac:	02078663          	beqz	a5,800016d8 <memset+0x44>
800016b0:	00c50633          	add	a2,a0,a2
800016b4:	00c57863          	bleu	a2,a0,800016c4 <memset+0x30>
800016b8:	40a60633          	sub	a2,a2,a0
800016bc:	0ff5f593          	andi	a1,a1,255
800016c0:	fd5ff0ef          	jal	80001694 <memset>
800016c4:	00c12083          	lw	ra,12(sp)
800016c8:	00040513          	mv	a0,s0
800016cc:	00812403          	lw	s0,8(sp)
800016d0:	01010113          	addi	sp,sp,16
800016d4:	00008067          	ret
800016d8:	0ff5f713          	andi	a4,a1,255
800016dc:	00871593          	slli	a1,a4,0x8
800016e0:	00b76733          	or	a4,a4,a1
800016e4:	01071793          	slli	a5,a4,0x10
800016e8:	00c50633          	add	a2,a0,a2
800016ec:	00f76733          	or	a4,a4,a5
800016f0:	fcc57ae3          	bleu	a2,a0,800016c4 <memset+0x30>
800016f4:	00050793          	mv	a5,a0
800016f8:	00478793          	addi	a5,a5,4
800016fc:	fee7ae23          	sw	a4,-4(a5)
80001700:	fec7ece3          	bltu	a5,a2,800016f8 <memset+0x64>
80001704:	00c12083          	lw	ra,12(sp)
80001708:	00040513          	mv	a0,s0
8000170c:	00812403          	lw	s0,8(sp)
80001710:	01010113          	addi	sp,sp,16
80001714:	00008067          	ret

80001718 <init_tls>:
80001718:	ff010113          	addi	sp,sp,-16
8000171c:	00812423          	sw	s0,8(sp)
80001720:	00912223          	sw	s1,4(sp)
80001724:	00020493          	mv	s1,tp
80001728:	00020413          	mv	s0,tp
8000172c:	40848433          	sub	s0,s1,s0
80001730:	00040613          	mv	a2,s0
80001734:	00002597          	auipc	a1,0x2
80001738:	b6c58593          	addi	a1,a1,-1172 # 800032a0 <_end>
8000173c:	00020513          	mv	a0,tp
80001740:	00112623          	sw	ra,12(sp)
80001744:	01212023          	sw	s2,0(sp)
80001748:	00020913          	mv	s2,tp
8000174c:	e45ff0ef          	jal	80001590 <memcpy>
80001750:	00020613          	mv	a2,tp
80001754:	00890533          	add	a0,s2,s0
80001758:	40960633          	sub	a2,a2,s1
8000175c:	00c12083          	lw	ra,12(sp)
80001760:	00812403          	lw	s0,8(sp)
80001764:	00412483          	lw	s1,4(sp)
80001768:	00012903          	lw	s2,0(sp)
8000176c:	00000593          	li	a1,0
80001770:	01010113          	addi	sp,sp,16
80001774:	f21ff06f          	j	80001694 <memset>

80001778 <strlen>:
80001778:	00054783          	lbu	a5,0(a0)
8000177c:	00078e63          	beqz	a5,80001798 <strlen+0x20>
80001780:	00050793          	mv	a5,a0
80001784:	00178793          	addi	a5,a5,1
80001788:	0007c703          	lbu	a4,0(a5)
8000178c:	fe071ce3          	bnez	a4,80001784 <strlen+0xc>
80001790:	40a78533          	sub	a0,a5,a0
80001794:	00008067          	ret
80001798:	00000513          	li	a0,0
8000179c:	00008067          	ret

800017a0 <printstr>:
800017a0:	fe010113          	addi	sp,sp,-32
800017a4:	01312623          	sw	s3,12(sp)
800017a8:	00050993          	mv	s3,a0
800017ac:	01212823          	sw	s2,16(sp)
800017b0:	00050913          	mv	s2,a0
800017b4:	00098513          	mv	a0,s3
800017b8:	00812c23          	sw	s0,24(sp)
800017bc:	00912a23          	sw	s1,20(sp)
800017c0:	00112e23          	sw	ra,28(sp)
800017c4:	00000493          	li	s1,0
800017c8:	80001437          	lui	s0,0x80001
800017cc:	fadff0ef          	jal	80001778 <strlen>
800017d0:	02a4f863          	bleu	a0,s1,80001800 <printstr+0x60>
800017d4:	00042783          	lw	a5,0(s0) # 80001000 <__global_pointer$+0xffffd638>
800017d8:	fe07cee3          	bltz	a5,800017d4 <printstr+0x34>
800017dc:	00094783          	lbu	a5,0(s2)
800017e0:	00f42023          	sw	a5,0(s0)
800017e4:	00042783          	lw	a5,0(s0)
800017e8:	fe07cee3          	bltz	a5,800017e4 <printstr+0x44>
800017ec:	00098513          	mv	a0,s3
800017f0:	00148493          	addi	s1,s1,1
800017f4:	00190913          	addi	s2,s2,1
800017f8:	f81ff0ef          	jal	80001778 <strlen>
800017fc:	fca4ece3          	bltu	s1,a0,800017d4 <printstr+0x34>
80001800:	01c12083          	lw	ra,28(sp)
80001804:	01812403          	lw	s0,24(sp)
80001808:	01412483          	lw	s1,20(sp)
8000180c:	01012903          	lw	s2,16(sp)
80001810:	00c12983          	lw	s3,12(sp)
80001814:	02010113          	addi	sp,sp,32
80001818:	00008067          	ret

8000181c <printhex>:
8000181c:	fd010113          	addi	sp,sp,-48
80001820:	02112623          	sw	ra,44(sp)
80001824:	00f57793          	andi	a5,a0,15
80001828:	00900693          	li	a3,9
8000182c:	03000713          	li	a4,48
80001830:	00f6f463          	bleu	a5,a3,80001838 <printhex+0x1c>
80001834:	05700713          	li	a4,87
80001838:	00e78733          	add	a4,a5,a4
8000183c:	00455793          	srli	a5,a0,0x4
80001840:	00e10da3          	sb	a4,27(sp)
80001844:	00f7f793          	andi	a5,a5,15
80001848:	00900693          	li	a3,9
8000184c:	05700713          	li	a4,87
80001850:	00f6e463          	bltu	a3,a5,80001858 <printhex+0x3c>
80001854:	03000713          	li	a4,48
80001858:	00e78733          	add	a4,a5,a4
8000185c:	00855793          	srli	a5,a0,0x8
80001860:	00e10d23          	sb	a4,26(sp)
80001864:	00f7f793          	andi	a5,a5,15
80001868:	00900693          	li	a3,9
8000186c:	05700713          	li	a4,87
80001870:	00f6e463          	bltu	a3,a5,80001878 <printhex+0x5c>
80001874:	03000713          	li	a4,48
80001878:	00e78733          	add	a4,a5,a4
8000187c:	00c55793          	srli	a5,a0,0xc
80001880:	00e10ca3          	sb	a4,25(sp)
80001884:	00f7f793          	andi	a5,a5,15
80001888:	00900693          	li	a3,9
8000188c:	05700713          	li	a4,87
80001890:	00f6e463          	bltu	a3,a5,80001898 <printhex+0x7c>
80001894:	03000713          	li	a4,48
80001898:	00e78733          	add	a4,a5,a4
8000189c:	01055793          	srli	a5,a0,0x10
800018a0:	00e10c23          	sb	a4,24(sp)
800018a4:	00f7f793          	andi	a5,a5,15
800018a8:	00900693          	li	a3,9
800018ac:	05700713          	li	a4,87
800018b0:	00f6e463          	bltu	a3,a5,800018b8 <printhex+0x9c>
800018b4:	03000713          	li	a4,48
800018b8:	00e78733          	add	a4,a5,a4
800018bc:	01455793          	srli	a5,a0,0x14
800018c0:	00e10ba3          	sb	a4,23(sp)
800018c4:	00f7f793          	andi	a5,a5,15
800018c8:	00900693          	li	a3,9
800018cc:	05700713          	li	a4,87
800018d0:	00f6e463          	bltu	a3,a5,800018d8 <printhex+0xbc>
800018d4:	03000713          	li	a4,48
800018d8:	00e78733          	add	a4,a5,a4
800018dc:	01855793          	srli	a5,a0,0x18
800018e0:	00e10b23          	sb	a4,22(sp)
800018e4:	00f7f793          	andi	a5,a5,15
800018e8:	00900693          	li	a3,9
800018ec:	05700713          	li	a4,87
800018f0:	00f6e463          	bltu	a3,a5,800018f8 <printhex+0xdc>
800018f4:	03000713          	li	a4,48
800018f8:	00e787b3          	add	a5,a5,a4
800018fc:	00f10aa3          	sb	a5,21(sp)
80001900:	01c55513          	srli	a0,a0,0x1c
80001904:	00900713          	li	a4,9
80001908:	05700793          	li	a5,87
8000190c:	00a76463          	bltu	a4,a0,80001914 <printhex+0xf8>
80001910:	03000793          	li	a5,48
80001914:	00f50533          	add	a0,a0,a5
80001918:	00a10a23          	sb	a0,20(sp)
8000191c:	00f5f793          	andi	a5,a1,15
80001920:	00900693          	li	a3,9
80001924:	05700713          	li	a4,87
80001928:	00f6e463          	bltu	a3,a5,80001930 <printhex+0x114>
8000192c:	03000713          	li	a4,48
80001930:	00e78733          	add	a4,a5,a4
80001934:	0045d793          	srli	a5,a1,0x4
80001938:	00e109a3          	sb	a4,19(sp)
8000193c:	00f7f793          	andi	a5,a5,15
80001940:	00900693          	li	a3,9
80001944:	05700713          	li	a4,87
80001948:	00f6e463          	bltu	a3,a5,80001950 <printhex+0x134>
8000194c:	03000713          	li	a4,48
80001950:	00e78733          	add	a4,a5,a4
80001954:	0085d793          	srli	a5,a1,0x8
80001958:	00e10923          	sb	a4,18(sp)
8000195c:	00f7f793          	andi	a5,a5,15
80001960:	00900693          	li	a3,9
80001964:	05700713          	li	a4,87
80001968:	00f6e463          	bltu	a3,a5,80001970 <printhex+0x154>
8000196c:	03000713          	li	a4,48
80001970:	00e78733          	add	a4,a5,a4
80001974:	00c5d793          	srli	a5,a1,0xc
80001978:	00e108a3          	sb	a4,17(sp)
8000197c:	00f7f793          	andi	a5,a5,15
80001980:	00900693          	li	a3,9
80001984:	05700713          	li	a4,87
80001988:	00f6e463          	bltu	a3,a5,80001990 <printhex+0x174>
8000198c:	03000713          	li	a4,48
80001990:	00e78733          	add	a4,a5,a4
80001994:	0105d793          	srli	a5,a1,0x10
80001998:	00e10823          	sb	a4,16(sp)
8000199c:	00f7f793          	andi	a5,a5,15
800019a0:	00900693          	li	a3,9
800019a4:	05700713          	li	a4,87
800019a8:	00f6e463          	bltu	a3,a5,800019b0 <printhex+0x194>
800019ac:	03000713          	li	a4,48
800019b0:	00e78733          	add	a4,a5,a4
800019b4:	0145d793          	srli	a5,a1,0x14
800019b8:	00e107a3          	sb	a4,15(sp)
800019bc:	00f7f793          	andi	a5,a5,15
800019c0:	00900693          	li	a3,9
800019c4:	05700713          	li	a4,87
800019c8:	00f6e463          	bltu	a3,a5,800019d0 <printhex+0x1b4>
800019cc:	03000713          	li	a4,48
800019d0:	00e78733          	add	a4,a5,a4
800019d4:	0185d793          	srli	a5,a1,0x18
800019d8:	00e10723          	sb	a4,14(sp)
800019dc:	00f7f793          	andi	a5,a5,15
800019e0:	00900693          	li	a3,9
800019e4:	05700713          	li	a4,87
800019e8:	00f6e463          	bltu	a3,a5,800019f0 <printhex+0x1d4>
800019ec:	03000713          	li	a4,48
800019f0:	00e787b3          	add	a5,a5,a4
800019f4:	00f106a3          	sb	a5,13(sp)
800019f8:	01c5d593          	srli	a1,a1,0x1c
800019fc:	00900713          	li	a4,9
80001a00:	05700793          	li	a5,87
80001a04:	00b76463          	bltu	a4,a1,80001a0c <printhex+0x1f0>
80001a08:	03000793          	li	a5,48
80001a0c:	00f585b3          	add	a1,a1,a5
80001a10:	00c10513          	addi	a0,sp,12
80001a14:	00b10623          	sb	a1,12(sp)
80001a18:	00010e23          	sb	zero,28(sp)
80001a1c:	d85ff0ef          	jal	800017a0 <printstr>
80001a20:	02c12083          	lw	ra,44(sp)
80001a24:	03010113          	addi	sp,sp,48
80001a28:	00008067          	ret

80001a2c <strnlen>:
80001a2c:	02058863          	beqz	a1,80001a5c <strnlen+0x30>
80001a30:	00054783          	lbu	a5,0(a0)
80001a34:	02078463          	beqz	a5,80001a5c <strnlen+0x30>
80001a38:	00b505b3          	add	a1,a0,a1
80001a3c:	00050793          	mv	a5,a0
80001a40:	00c0006f          	j	80001a4c <strnlen+0x20>
80001a44:	0007c703          	lbu	a4,0(a5)
80001a48:	00070663          	beqz	a4,80001a54 <strnlen+0x28>
80001a4c:	00178793          	addi	a5,a5,1
80001a50:	feb79ae3          	bne	a5,a1,80001a44 <strnlen+0x18>
80001a54:	40a78533          	sub	a0,a5,a0
80001a58:	00008067          	ret
80001a5c:	00000513          	li	a0,0
80001a60:	00008067          	ret

80001a64 <vprintfmt.constprop.0>:
80001a64:	fc010113          	addi	sp,sp,-64
80001a68:	02812c23          	sw	s0,56(sp)
80001a6c:	03212823          	sw	s2,48(sp)
80001a70:	03312623          	sw	s3,44(sp)
80001a74:	03412423          	sw	s4,40(sp)
80001a78:	03512223          	sw	s5,36(sp)
80001a7c:	03612023          	sw	s6,32(sp)
80001a80:	02112e23          	sw	ra,60(sp)
80001a84:	02912a23          	sw	s1,52(sp)
80001a88:	01712e23          	sw	s7,28(sp)
80001a8c:	01812c23          	sw	s8,24(sp)
80001a90:	01912a23          	sw	s9,20(sp)
80001a94:	01a12823          	sw	s10,16(sp)
80001a98:	00050913          	mv	s2,a0
80001a9c:	00058413          	mv	s0,a1
80001aa0:	00c12623          	sw	a2,12(sp)
80001aa4:	00001997          	auipc	s3,0x1
80001aa8:	2e898993          	addi	s3,s3,744 # 80002d8c <Representation.1439+0x14>
80001aac:	00100b13          	li	s6,1
80001ab0:	03000a93          	li	s5,48
80001ab4:	fff00a13          	li	s4,-1
80001ab8:	00044503          	lbu	a0,0(s0)
80001abc:	02500493          	li	s1,37
80001ac0:	00950e63          	beq	a0,s1,80001adc <vprintfmt.constprop.0+0x78>
80001ac4:	06050863          	beqz	a0,80001b34 <vprintfmt.constprop.0+0xd0>
80001ac8:	00090593          	mv	a1,s2
80001acc:	00140413          	addi	s0,s0,1
80001ad0:	f44ff0ef          	jal	80001214 <sprintf_putch.2813>
80001ad4:	00044503          	lbu	a0,0(s0)
80001ad8:	fe9516e3          	bne	a0,s1,80001ac4 <vprintfmt.constprop.0+0x60>
80001adc:	00c12603          	lw	a2,12(sp)
80001ae0:	00144e03          	lbu	t3,1(s0)
80001ae4:	00140c93          	addi	s9,s0,1
80001ae8:	fff00493          	li	s1,-1
80001aec:	00060893          	mv	a7,a2
80001af0:	000c8793          	mv	a5,s9
80001af4:	00000813          	li	a6,0
80001af8:	02000b93          	li	s7,32
80001afc:	00048c13          	mv	s8,s1
80001b00:	00000593          	li	a1,0
80001b04:	05500693          	li	a3,85
80001b08:	00900513          	li	a0,9
80001b0c:	02d00313          	li	t1,45
80001b10:	fdde0713          	addi	a4,t3,-35
80001b14:	0ff77713          	andi	a4,a4,255
80001b18:	00178413          	addi	s0,a5,1
80001b1c:	28e6e463          	bltu	a3,a4,80001da4 <vprintfmt.constprop.0+0x340>
80001b20:	00271713          	slli	a4,a4,0x2
80001b24:	01370733          	add	a4,a4,s3
80001b28:	00072703          	lw	a4,0(a4)
80001b2c:	01370733          	add	a4,a4,s3
80001b30:	00070067          	jr	a4
80001b34:	03c12083          	lw	ra,60(sp)
80001b38:	03812403          	lw	s0,56(sp)
80001b3c:	03412483          	lw	s1,52(sp)
80001b40:	03012903          	lw	s2,48(sp)
80001b44:	02c12983          	lw	s3,44(sp)
80001b48:	02812a03          	lw	s4,40(sp)
80001b4c:	02412a83          	lw	s5,36(sp)
80001b50:	02012b03          	lw	s6,32(sp)
80001b54:	01c12b83          	lw	s7,28(sp)
80001b58:	01812c03          	lw	s8,24(sp)
80001b5c:	01412c83          	lw	s9,20(sp)
80001b60:	01012d03          	lw	s10,16(sp)
80001b64:	04010113          	addi	sp,sp,64
80001b68:	00008067          	ret
80001b6c:	000c5463          	bgez	s8,80001b74 <vprintfmt.constprop.0+0x110>
80001b70:	00000c13          	li	s8,0
80001b74:	0017ce03          	lbu	t3,1(a5)
80001b78:	00040793          	mv	a5,s0
80001b7c:	f95ff06f          	j	80001b10 <vprintfmt.constprop.0+0xac>
80001b80:	2a081c63          	bnez	a6,80001e38 <vprintfmt.constprop.0+0x3d4>
80001b84:	01000493          	li	s1,16
80001b88:	00c10513          	addi	a0,sp,12
80001b8c:	de8ff0ef          	jal	80001174 <getuint>
80001b90:	00050613          	mv	a2,a0
80001b94:	00058693          	mv	a3,a1
80001b98:	000b8813          	mv	a6,s7
80001b9c:	000c0793          	mv	a5,s8
80001ba0:	00048713          	mv	a4,s1
80001ba4:	00090513          	mv	a0,s2
80001ba8:	fd0ff0ef          	jal	80001378 <printnum.constprop.3>
80001bac:	f0dff06f          	j	80001ab8 <vprintfmt.constprop.0+0x54>
80001bb0:	28081063          	bnez	a6,80001e30 <vprintfmt.constprop.0+0x3cc>
80001bb4:	00090593          	mv	a1,s2
80001bb8:	02500513          	li	a0,37
80001bbc:	e58ff0ef          	jal	80001214 <sprintf_putch.2813>
80001bc0:	ef9ff06f          	j	80001ab8 <vprintfmt.constprop.0+0x54>
80001bc4:	0008a483          	lw	s1,0(a7)
80001bc8:	0017ce03          	lbu	t3,1(a5)
80001bcc:	00488893          	addi	a7,a7,4
80001bd0:	00040793          	mv	a5,s0
80001bd4:	000b0813          	mv	a6,s6
80001bd8:	f20c5ce3          	bgez	s8,80001b10 <vprintfmt.constprop.0+0xac>
80001bdc:	00048c13          	mv	s8,s1
80001be0:	fff00493          	li	s1,-1
80001be4:	f2dff06f          	j	80001b10 <vprintfmt.constprop.0+0xac>
80001be8:	0017ce03          	lbu	t3,1(a5)
80001bec:	00030b93          	mv	s7,t1
80001bf0:	00040793          	mv	a5,s0
80001bf4:	f1dff06f          	j	80001b10 <vprintfmt.constprop.0+0xac>
80001bf8:	0017ce03          	lbu	t3,1(a5)
80001bfc:	000a8b93          	mv	s7,s5
80001c00:	00040793          	mv	a5,s0
80001c04:	f0dff06f          	j	80001b10 <vprintfmt.constprop.0+0xac>
80001c08:	0017ce83          	lbu	t4,1(a5)
80001c0c:	fd0e0493          	addi	s1,t3,-48
80001c10:	fd0e8793          	addi	a5,t4,-48
80001c14:	1cf56863          	bltu	a0,a5,80001de4 <vprintfmt.constprop.0+0x380>
80001c18:	00040793          	mv	a5,s0
80001c1c:	00249713          	slli	a4,s1,0x2
80001c20:	009704b3          	add	s1,a4,s1
80001c24:	00178793          	addi	a5,a5,1
80001c28:	00149493          	slli	s1,s1,0x1
80001c2c:	01d484b3          	add	s1,s1,t4
80001c30:	0007ce83          	lbu	t4,0(a5)
80001c34:	fd048493          	addi	s1,s1,-48
80001c38:	fd0e8713          	addi	a4,t4,-48
80001c3c:	fee570e3          	bleu	a4,a0,80001c1c <vprintfmt.constprop.0+0x1b8>
80001c40:	000e8e13          	mv	t3,t4
80001c44:	f95ff06f          	j	80001bd8 <vprintfmt.constprop.0+0x174>
80001c48:	1a081c63          	bnez	a6,80001e00 <vprintfmt.constprop.0+0x39c>
80001c4c:	00062503          	lw	a0,0(a2)
80001c50:	00090593          	mv	a1,s2
80001c54:	00460613          	addi	a2,a2,4
80001c58:	00c12623          	sw	a2,12(sp)
80001c5c:	db8ff0ef          	jal	80001214 <sprintf_putch.2813>
80001c60:	e59ff06f          	j	80001ab8 <vprintfmt.constprop.0+0x54>
80001c64:	1c081063          	bnez	a6,80001e24 <vprintfmt.constprop.0+0x3c0>
80001c68:	00800493          	li	s1,8
80001c6c:	f1dff06f          	j	80001b88 <vprintfmt.constprop.0+0x124>
80001c70:	1a081663          	bnez	a6,80001e1c <vprintfmt.constprop.0+0x3b8>
80001c74:	000a8513          	mv	a0,s5
80001c78:	00090593          	mv	a1,s2
80001c7c:	d98ff0ef          	jal	80001214 <sprintf_putch.2813>
80001c80:	00090593          	mv	a1,s2
80001c84:	07800513          	li	a0,120
80001c88:	d8cff0ef          	jal	80001214 <sprintf_putch.2813>
80001c8c:	01000493          	li	s1,16
80001c90:	00100593          	li	a1,1
80001c94:	ef5ff06f          	j	80001b88 <vprintfmt.constprop.0+0x124>
80001c98:	16081e63          	bnez	a6,80001e14 <vprintfmt.constprop.0+0x3b0>
80001c9c:	00460793          	addi	a5,a2,4
80001ca0:	00f12623          	sw	a5,12(sp)
80001ca4:	00062c83          	lw	s9,0(a2)
80001ca8:	120c8063          	beqz	s9,80001dc8 <vprintfmt.constprop.0+0x364>
80001cac:	05805263          	blez	s8,80001cf0 <vprintfmt.constprop.0+0x28c>
80001cb0:	02d00793          	li	a5,45
80001cb4:	10fb8463          	beq	s7,a5,80001dbc <vprintfmt.constprop.0+0x358>
80001cb8:	00048593          	mv	a1,s1
80001cbc:	000c8513          	mv	a0,s9
80001cc0:	d6dff0ef          	jal	80001a2c <strnlen>
80001cc4:	40ac0c33          	sub	s8,s8,a0
80001cc8:	03805463          	blez	s8,80001cf0 <vprintfmt.constprop.0+0x28c>
80001ccc:	000c0d13          	mv	s10,s8
80001cd0:	fffd0d13          	addi	s10,s10,-1
80001cd4:	00090593          	mv	a1,s2
80001cd8:	000b8513          	mv	a0,s7
80001cdc:	d38ff0ef          	jal	80001214 <sprintf_putch.2813>
80001ce0:	fe0d18e3          	bnez	s10,80001cd0 <vprintfmt.constprop.0+0x26c>
80001ce4:	fffc0793          	addi	a5,s8,-1
80001ce8:	418b0c33          	sub	s8,s6,s8
80001cec:	00fc0c33          	add	s8,s8,a5
80001cf0:	000cc503          	lbu	a0,0(s9)
80001cf4:	dc0502e3          	beqz	a0,80001ab8 <vprintfmt.constprop.0+0x54>
80001cf8:	0004c663          	bltz	s1,80001d04 <vprintfmt.constprop.0+0x2a0>
80001cfc:	fff48493          	addi	s1,s1,-1
80001d00:	01448e63          	beq	s1,s4,80001d1c <vprintfmt.constprop.0+0x2b8>
80001d04:	00090593          	mv	a1,s2
80001d08:	001c8c93          	addi	s9,s9,1
80001d0c:	d08ff0ef          	jal	80001214 <sprintf_putch.2813>
80001d10:	000cc503          	lbu	a0,0(s9)
80001d14:	fffc0c13          	addi	s8,s8,-1
80001d18:	fe0510e3          	bnez	a0,80001cf8 <vprintfmt.constprop.0+0x294>
80001d1c:	d9805ee3          	blez	s8,80001ab8 <vprintfmt.constprop.0+0x54>
80001d20:	02000493          	li	s1,32
80001d24:	fffc0c13          	addi	s8,s8,-1
80001d28:	00090593          	mv	a1,s2
80001d2c:	00048513          	mv	a0,s1
80001d30:	ce4ff0ef          	jal	80001214 <sprintf_putch.2813>
80001d34:	fe0c18e3          	bnez	s8,80001d24 <vprintfmt.constprop.0+0x2c0>
80001d38:	d81ff06f          	j	80001ab8 <vprintfmt.constprop.0+0x54>
80001d3c:	0c081663          	bnez	a6,80001e08 <vprintfmt.constprop.0+0x3a4>
80001d40:	00a00493          	li	s1,10
80001d44:	e45ff06f          	j	80001b88 <vprintfmt.constprop.0+0x124>
80001d48:	10081063          	bnez	a6,80001e48 <vprintfmt.constprop.0+0x3e4>
80001d4c:	00c10513          	addi	a0,sp,12
80001d50:	c80ff0ef          	jal	800011d0 <getint>
80001d54:	00050613          	mv	a2,a0
80001d58:	00058693          	mv	a3,a1
80001d5c:	00a00493          	li	s1,10
80001d60:	e205dce3          	bgez	a1,80001b98 <vprintfmt.constprop.0+0x134>
80001d64:	00b12423          	sw	a1,8(sp)
80001d68:	00a12223          	sw	a0,4(sp)
80001d6c:	00090593          	mv	a1,s2
80001d70:	02d00513          	li	a0,45
80001d74:	ca0ff0ef          	jal	80001214 <sprintf_putch.2813>
80001d78:	00412603          	lw	a2,4(sp)
80001d7c:	00812683          	lw	a3,8(sp)
80001d80:	40c00633          	neg	a2,a2
80001d84:	00c037b3          	snez	a5,a2
80001d88:	40d006b3          	neg	a3,a3
80001d8c:	40f686b3          	sub	a3,a3,a5
80001d90:	e09ff06f          	j	80001b98 <vprintfmt.constprop.0+0x134>
80001d94:	0017ce03          	lbu	t3,1(a5)
80001d98:	00158593          	addi	a1,a1,1
80001d9c:	00040793          	mv	a5,s0
80001da0:	d71ff06f          	j	80001b10 <vprintfmt.constprop.0+0xac>
80001da4:	08081e63          	bnez	a6,80001e40 <vprintfmt.constprop.0+0x3dc>
80001da8:	00090593          	mv	a1,s2
80001dac:	02500513          	li	a0,37
80001db0:	c64ff0ef          	jal	80001214 <sprintf_putch.2813>
80001db4:	000c8413          	mv	s0,s9
80001db8:	d01ff06f          	j	80001ab8 <vprintfmt.constprop.0+0x54>
80001dbc:	000cc503          	lbu	a0,0(s9)
80001dc0:	f2051ce3          	bnez	a0,80001cf8 <vprintfmt.constprop.0+0x294>
80001dc4:	f5dff06f          	j	80001d20 <vprintfmt.constprop.0+0x2bc>
80001dc8:	03805463          	blez	s8,80001df0 <vprintfmt.constprop.0+0x38c>
80001dcc:	02d00793          	li	a5,45
80001dd0:	00001c97          	auipc	s9,0x1
80001dd4:	3a8c8c93          	addi	s9,s9,936 # 80003178 <__clz_tab+0x13c>
80001dd8:	02800513          	li	a0,40
80001ddc:	ecfb9ee3          	bne	s7,a5,80001cb8 <vprintfmt.constprop.0+0x254>
80001de0:	f19ff06f          	j	80001cf8 <vprintfmt.constprop.0+0x294>
80001de4:	000e8e13          	mv	t3,t4
80001de8:	00040793          	mv	a5,s0
80001dec:	dedff06f          	j	80001bd8 <vprintfmt.constprop.0+0x174>
80001df0:	02800513          	li	a0,40
80001df4:	00001c97          	auipc	s9,0x1
80001df8:	384c8c93          	addi	s9,s9,900 # 80003178 <__clz_tab+0x13c>
80001dfc:	efdff06f          	j	80001cf8 <vprintfmt.constprop.0+0x294>
80001e00:	00088613          	mv	a2,a7
80001e04:	e49ff06f          	j	80001c4c <vprintfmt.constprop.0+0x1e8>
80001e08:	01112623          	sw	a7,12(sp)
80001e0c:	00a00493          	li	s1,10
80001e10:	d79ff06f          	j	80001b88 <vprintfmt.constprop.0+0x124>
80001e14:	00088613          	mv	a2,a7
80001e18:	e85ff06f          	j	80001c9c <vprintfmt.constprop.0+0x238>
80001e1c:	01112623          	sw	a7,12(sp)
80001e20:	e55ff06f          	j	80001c74 <vprintfmt.constprop.0+0x210>
80001e24:	01112623          	sw	a7,12(sp)
80001e28:	00800493          	li	s1,8
80001e2c:	d5dff06f          	j	80001b88 <vprintfmt.constprop.0+0x124>
80001e30:	01112623          	sw	a7,12(sp)
80001e34:	d81ff06f          	j	80001bb4 <vprintfmt.constprop.0+0x150>
80001e38:	01112623          	sw	a7,12(sp)
80001e3c:	d49ff06f          	j	80001b84 <vprintfmt.constprop.0+0x120>
80001e40:	01112623          	sw	a7,12(sp)
80001e44:	f65ff06f          	j	80001da8 <vprintfmt.constprop.0+0x344>
80001e48:	01112623          	sw	a7,12(sp)
80001e4c:	f01ff06f          	j	80001d4c <vprintfmt.constprop.0+0x2e8>

80001e50 <sprintf>:
80001e50:	fb010113          	addi	sp,sp,-80
80001e54:	03810313          	addi	t1,sp,56
80001e58:	02812423          	sw	s0,40(sp)
80001e5c:	00a12623          	sw	a0,12(sp)
80001e60:	02c12c23          	sw	a2,56(sp)
80001e64:	00050413          	mv	s0,a0
80001e68:	00030613          	mv	a2,t1
80001e6c:	00c10513          	addi	a0,sp,12
80001e70:	02112623          	sw	ra,44(sp)
80001e74:	04f12223          	sw	a5,68(sp)
80001e78:	02d12e23          	sw	a3,60(sp)
80001e7c:	04e12023          	sw	a4,64(sp)
80001e80:	05012423          	sw	a6,72(sp)
80001e84:	05112623          	sw	a7,76(sp)
80001e88:	00612e23          	sw	t1,28(sp)
80001e8c:	bd9ff0ef          	jal	80001a64 <vprintfmt.constprop.0>
80001e90:	00c12783          	lw	a5,12(sp)
80001e94:	00078023          	sb	zero,0(a5)
80001e98:	00c12503          	lw	a0,12(sp)
80001e9c:	02c12083          	lw	ra,44(sp)
80001ea0:	40850533          	sub	a0,a0,s0
80001ea4:	02812403          	lw	s0,40(sp)
80001ea8:	05010113          	addi	sp,sp,80
80001eac:	00008067          	ret

80001eb0 <_init>:
80001eb0:	fe010113          	addi	sp,sp,-32
80001eb4:	00112e23          	sw	ra,28(sp)
80001eb8:	00812c23          	sw	s0,24(sp)
80001ebc:	00912a23          	sw	s1,20(sp)
80001ec0:	02010413          	addi	s0,sp,32
80001ec4:	01212823          	sw	s2,16(sp)
80001ec8:	01312623          	sw	s3,12(sp)
80001ecc:	f8010113          	addi	sp,sp,-128
80001ed0:	00058993          	mv	s3,a1
80001ed4:	00050913          	mv	s2,a0
80001ed8:	841ff0ef          	jal	80001718 <init_tls>
80001edc:	00098593          	mv	a1,s3
80001ee0:	00090513          	mv	a0,s2
80001ee4:	ea0ff0ef          	jal	80001584 <thread_entry>
80001ee8:	00000593          	li	a1,0
80001eec:	00000513          	li	a0,0
80001ef0:	60d000ef          	jal	80002cfc <main>
80001ef4:	03f10493          	addi	s1,sp,63
80001ef8:	00001697          	auipc	a3,0x1
80001efc:	2d86a683          	lw	a3,728(a3) # 800031d0 <counters>
80001f00:	fc04f493          	andi	s1,s1,-64
80001f04:	00050993          	mv	s3,a0
80001f08:	04069263          	bnez	a3,80001f4c <_init+0x9c>
80001f0c:	00001697          	auipc	a3,0x1
80001f10:	2c86a683          	lw	a3,712(a3) # 800031d4 <counters+0x4>
80001f14:	00048913          	mv	s2,s1
80001f18:	02068663          	beqz	a3,80001f44 <_init+0x94>
80001f1c:	00090513          	mv	a0,s2
80001f20:	00001617          	auipc	a2,0x1
80001f24:	2ac62603          	lw	a2,684(a2) # 800031cc <counter_names+0x4>
80001f28:	00001597          	auipc	a1,0x1
80001f2c:	25858593          	addi	a1,a1,600 # 80003180 <__clz_tab+0x144>
80001f30:	f21ff0ef          	jal	80001e50 <sprintf>
80001f34:	00a90933          	add	s2,s2,a0
80001f38:	01248663          	beq	s1,s2,80001f44 <_init+0x94>
80001f3c:	00048513          	mv	a0,s1
80001f40:	861ff0ef          	jal	800017a0 <printstr>
80001f44:	00098513          	mv	a0,s3
80001f48:	e20ff0ef          	jal	80001568 <exit>
80001f4c:	00001617          	auipc	a2,0x1
80001f50:	27c62603          	lw	a2,636(a2) # 800031c8 <counter_names>
80001f54:	00001597          	auipc	a1,0x1
80001f58:	22c58593          	addi	a1,a1,556 # 80003180 <__clz_tab+0x144>
80001f5c:	00048513          	mv	a0,s1
80001f60:	ef1ff0ef          	jal	80001e50 <sprintf>
80001f64:	00001697          	auipc	a3,0x1
80001f68:	2706a683          	lw	a3,624(a3) # 800031d4 <counters+0x4>
80001f6c:	00a48933          	add	s2,s1,a0
80001f70:	fc0684e3          	beqz	a3,80001f38 <_init+0x88>
80001f74:	fa9ff06f          	j	80001f1c <_init+0x6c>

80001f78 <vprintfmt.constprop.1>:
80001f78:	fc010113          	addi	sp,sp,-64
80001f7c:	02812c23          	sw	s0,56(sp)
80001f80:	03212823          	sw	s2,48(sp)
80001f84:	03312623          	sw	s3,44(sp)
80001f88:	03412423          	sw	s4,40(sp)
80001f8c:	03512223          	sw	s5,36(sp)
80001f90:	02112e23          	sw	ra,60(sp)
80001f94:	02912a23          	sw	s1,52(sp)
80001f98:	03612023          	sw	s6,32(sp)
80001f9c:	01712e23          	sw	s7,28(sp)
80001fa0:	01812c23          	sw	s8,24(sp)
80001fa4:	01912a23          	sw	s9,20(sp)
80001fa8:	00050413          	mv	s0,a0
80001fac:	00b12623          	sw	a1,12(sp)
80001fb0:	00001917          	auipc	s2,0x1
80001fb4:	f3490913          	addi	s2,s2,-204 # 80002ee4 <Representation.1439+0x16c>
80001fb8:	00100a93          	li	s5,1
80001fbc:	03000a13          	li	s4,48
80001fc0:	fff00993          	li	s3,-1
80001fc4:	00044503          	lbu	a0,0(s0)
80001fc8:	02500493          	li	s1,37
80001fcc:	00950e63          	beq	a0,s1,80001fe8 <vprintfmt.constprop.1+0x70>
80001fd0:	06050863          	beqz	a0,80002040 <vprintfmt.constprop.1+0xc8>
80001fd4:	00000593          	li	a1,0
80001fd8:	00140413          	addi	s0,s0,1
80001fdc:	970ff0ef          	jal	8000114c <putchar>
80001fe0:	00044503          	lbu	a0,0(s0)
80001fe4:	fe9516e3          	bne	a0,s1,80001fd0 <vprintfmt.constprop.1+0x58>
80001fe8:	00c12603          	lw	a2,12(sp)
80001fec:	00144e03          	lbu	t3,1(s0)
80001ff0:	00140c13          	addi	s8,s0,1
80001ff4:	fff00493          	li	s1,-1
80001ff8:	00060893          	mv	a7,a2
80001ffc:	000c0713          	mv	a4,s8
80002000:	00000813          	li	a6,0
80002004:	02000b13          	li	s6,32
80002008:	00048b93          	mv	s7,s1
8000200c:	00000593          	li	a1,0
80002010:	05500693          	li	a3,85
80002014:	00900513          	li	a0,9
80002018:	02d00313          	li	t1,45
8000201c:	fdde0793          	addi	a5,t3,-35
80002020:	0ff7f793          	andi	a5,a5,255
80002024:	00170413          	addi	s0,a4,1
80002028:	26f6ec63          	bltu	a3,a5,800022a0 <vprintfmt.constprop.1+0x328>
8000202c:	00279793          	slli	a5,a5,0x2
80002030:	012787b3          	add	a5,a5,s2
80002034:	0007a783          	lw	a5,0(a5)
80002038:	012787b3          	add	a5,a5,s2
8000203c:	00078067          	jr	a5
80002040:	03c12083          	lw	ra,60(sp)
80002044:	03812403          	lw	s0,56(sp)
80002048:	03412483          	lw	s1,52(sp)
8000204c:	03012903          	lw	s2,48(sp)
80002050:	02c12983          	lw	s3,44(sp)
80002054:	02812a03          	lw	s4,40(sp)
80002058:	02412a83          	lw	s5,36(sp)
8000205c:	02012b03          	lw	s6,32(sp)
80002060:	01c12b83          	lw	s7,28(sp)
80002064:	01812c03          	lw	s8,24(sp)
80002068:	01412c83          	lw	s9,20(sp)
8000206c:	04010113          	addi	sp,sp,64
80002070:	00008067          	ret
80002074:	000bd463          	bgez	s7,8000207c <vprintfmt.constprop.1+0x104>
80002078:	00000b93          	li	s7,0
8000207c:	00174e03          	lbu	t3,1(a4)
80002080:	00040713          	mv	a4,s0
80002084:	f99ff06f          	j	8000201c <vprintfmt.constprop.1+0xa4>
80002088:	2a081663          	bnez	a6,80002334 <vprintfmt.constprop.1+0x3bc>
8000208c:	01000c93          	li	s9,16
80002090:	00c10513          	addi	a0,sp,12
80002094:	8e0ff0ef          	jal	80001174 <getuint>
80002098:	00050c13          	mv	s8,a0
8000209c:	00058493          	mv	s1,a1
800020a0:	000b0713          	mv	a4,s6
800020a4:	000b8693          	mv	a3,s7
800020a8:	000c8613          	mv	a2,s9
800020ac:	000c0513          	mv	a0,s8
800020b0:	00048593          	mv	a1,s1
800020b4:	978ff0ef          	jal	8000122c <printnum.constprop.2>
800020b8:	f0dff06f          	j	80001fc4 <vprintfmt.constprop.1+0x4c>
800020bc:	26081863          	bnez	a6,8000232c <vprintfmt.constprop.1+0x3b4>
800020c0:	00000593          	li	a1,0
800020c4:	02500513          	li	a0,37
800020c8:	884ff0ef          	jal	8000114c <putchar>
800020cc:	ef9ff06f          	j	80001fc4 <vprintfmt.constprop.1+0x4c>
800020d0:	0008a483          	lw	s1,0(a7)
800020d4:	00174e03          	lbu	t3,1(a4)
800020d8:	00488893          	addi	a7,a7,4
800020dc:	00040713          	mv	a4,s0
800020e0:	000a8813          	mv	a6,s5
800020e4:	f20bdce3          	bgez	s7,8000201c <vprintfmt.constprop.1+0xa4>
800020e8:	00048b93          	mv	s7,s1
800020ec:	fff00493          	li	s1,-1
800020f0:	f2dff06f          	j	8000201c <vprintfmt.constprop.1+0xa4>
800020f4:	00174e03          	lbu	t3,1(a4)
800020f8:	00030b13          	mv	s6,t1
800020fc:	00040713          	mv	a4,s0
80002100:	f1dff06f          	j	8000201c <vprintfmt.constprop.1+0xa4>
80002104:	00174e03          	lbu	t3,1(a4)
80002108:	000a0b13          	mv	s6,s4
8000210c:	00040713          	mv	a4,s0
80002110:	f0dff06f          	j	8000201c <vprintfmt.constprop.1+0xa4>
80002114:	00174e83          	lbu	t4,1(a4)
80002118:	fd0e0493          	addi	s1,t3,-48
8000211c:	fd0e8793          	addi	a5,t4,-48
80002120:	1cf56063          	bltu	a0,a5,800022e0 <vprintfmt.constprop.1+0x368>
80002124:	00040713          	mv	a4,s0
80002128:	00249793          	slli	a5,s1,0x2
8000212c:	009784b3          	add	s1,a5,s1
80002130:	00170713          	addi	a4,a4,1
80002134:	00149493          	slli	s1,s1,0x1
80002138:	01d484b3          	add	s1,s1,t4
8000213c:	00074e83          	lbu	t4,0(a4)
80002140:	fd048493          	addi	s1,s1,-48
80002144:	fd0e8793          	addi	a5,t4,-48
80002148:	fef570e3          	bleu	a5,a0,80002128 <vprintfmt.constprop.1+0x1b0>
8000214c:	000e8e13          	mv	t3,t4
80002150:	f95ff06f          	j	800020e4 <vprintfmt.constprop.1+0x16c>
80002154:	1a081463          	bnez	a6,800022fc <vprintfmt.constprop.1+0x384>
80002158:	00062503          	lw	a0,0(a2)
8000215c:	00000593          	li	a1,0
80002160:	00460613          	addi	a2,a2,4
80002164:	00c12623          	sw	a2,12(sp)
80002168:	fe5fe0ef          	jal	8000114c <putchar>
8000216c:	e59ff06f          	j	80001fc4 <vprintfmt.constprop.1+0x4c>
80002170:	1a081863          	bnez	a6,80002320 <vprintfmt.constprop.1+0x3a8>
80002174:	00800c93          	li	s9,8
80002178:	f19ff06f          	j	80002090 <vprintfmt.constprop.1+0x118>
8000217c:	18081e63          	bnez	a6,80002318 <vprintfmt.constprop.1+0x3a0>
80002180:	00000593          	li	a1,0
80002184:	000a0513          	mv	a0,s4
80002188:	fc5fe0ef          	jal	8000114c <putchar>
8000218c:	00000593          	li	a1,0
80002190:	07800513          	li	a0,120
80002194:	fb9fe0ef          	jal	8000114c <putchar>
80002198:	01000c93          	li	s9,16
8000219c:	00100593          	li	a1,1
800021a0:	ef1ff06f          	j	80002090 <vprintfmt.constprop.1+0x118>
800021a4:	16081663          	bnez	a6,80002310 <vprintfmt.constprop.1+0x398>
800021a8:	00460793          	addi	a5,a2,4
800021ac:	00f12623          	sw	a5,12(sp)
800021b0:	00062c03          	lw	s8,0(a2)
800021b4:	100c0863          	beqz	s8,800022c4 <vprintfmt.constprop.1+0x34c>
800021b8:	05705263          	blez	s7,800021fc <vprintfmt.constprop.1+0x284>
800021bc:	02d00793          	li	a5,45
800021c0:	0efb0c63          	beq	s6,a5,800022b8 <vprintfmt.constprop.1+0x340>
800021c4:	00048593          	mv	a1,s1
800021c8:	000c0513          	mv	a0,s8
800021cc:	861ff0ef          	jal	80001a2c <strnlen>
800021d0:	40ab8bb3          	sub	s7,s7,a0
800021d4:	03705463          	blez	s7,800021fc <vprintfmt.constprop.1+0x284>
800021d8:	000b8c93          	mv	s9,s7
800021dc:	fffc8c93          	addi	s9,s9,-1
800021e0:	00000593          	li	a1,0
800021e4:	000b0513          	mv	a0,s6
800021e8:	f65fe0ef          	jal	8000114c <putchar>
800021ec:	fe0c98e3          	bnez	s9,800021dc <vprintfmt.constprop.1+0x264>
800021f0:	fffb8793          	addi	a5,s7,-1
800021f4:	417a8bb3          	sub	s7,s5,s7
800021f8:	00fb8bb3          	add	s7,s7,a5
800021fc:	000c4503          	lbu	a0,0(s8)
80002200:	dc0502e3          	beqz	a0,80001fc4 <vprintfmt.constprop.1+0x4c>
80002204:	0004c663          	bltz	s1,80002210 <vprintfmt.constprop.1+0x298>
80002208:	fff48493          	addi	s1,s1,-1
8000220c:	01348e63          	beq	s1,s3,80002228 <vprintfmt.constprop.1+0x2b0>
80002210:	00000593          	li	a1,0
80002214:	001c0c13          	addi	s8,s8,1
80002218:	f35fe0ef          	jal	8000114c <putchar>
8000221c:	000c4503          	lbu	a0,0(s8)
80002220:	fffb8b93          	addi	s7,s7,-1
80002224:	fe0510e3          	bnez	a0,80002204 <vprintfmt.constprop.1+0x28c>
80002228:	d9705ee3          	blez	s7,80001fc4 <vprintfmt.constprop.1+0x4c>
8000222c:	02000493          	li	s1,32
80002230:	fffb8b93          	addi	s7,s7,-1
80002234:	00000593          	li	a1,0
80002238:	00048513          	mv	a0,s1
8000223c:	f11fe0ef          	jal	8000114c <putchar>
80002240:	fe0b98e3          	bnez	s7,80002230 <vprintfmt.constprop.1+0x2b8>
80002244:	d81ff06f          	j	80001fc4 <vprintfmt.constprop.1+0x4c>
80002248:	0a081e63          	bnez	a6,80002304 <vprintfmt.constprop.1+0x38c>
8000224c:	00a00c93          	li	s9,10
80002250:	e41ff06f          	j	80002090 <vprintfmt.constprop.1+0x118>
80002254:	0e081863          	bnez	a6,80002344 <vprintfmt.constprop.1+0x3cc>
80002258:	00c10513          	addi	a0,sp,12
8000225c:	f75fe0ef          	jal	800011d0 <getint>
80002260:	00050c13          	mv	s8,a0
80002264:	00058493          	mv	s1,a1
80002268:	00a00c93          	li	s9,10
8000226c:	e205dae3          	bgez	a1,800020a0 <vprintfmt.constprop.1+0x128>
80002270:	00000593          	li	a1,0
80002274:	02d00513          	li	a0,45
80002278:	ed5fe0ef          	jal	8000114c <putchar>
8000227c:	41800c33          	neg	s8,s8
80002280:	018037b3          	snez	a5,s8
80002284:	409004b3          	neg	s1,s1
80002288:	40f484b3          	sub	s1,s1,a5
8000228c:	e15ff06f          	j	800020a0 <vprintfmt.constprop.1+0x128>
80002290:	00174e03          	lbu	t3,1(a4)
80002294:	00158593          	addi	a1,a1,1
80002298:	00040713          	mv	a4,s0
8000229c:	d81ff06f          	j	8000201c <vprintfmt.constprop.1+0xa4>
800022a0:	08081e63          	bnez	a6,8000233c <vprintfmt.constprop.1+0x3c4>
800022a4:	00000593          	li	a1,0
800022a8:	02500513          	li	a0,37
800022ac:	ea1fe0ef          	jal	8000114c <putchar>
800022b0:	000c0413          	mv	s0,s8
800022b4:	d11ff06f          	j	80001fc4 <vprintfmt.constprop.1+0x4c>
800022b8:	000c4503          	lbu	a0,0(s8)
800022bc:	f40514e3          	bnez	a0,80002204 <vprintfmt.constprop.1+0x28c>
800022c0:	f6dff06f          	j	8000222c <vprintfmt.constprop.1+0x2b4>
800022c4:	03705463          	blez	s7,800022ec <vprintfmt.constprop.1+0x374>
800022c8:	02d00793          	li	a5,45
800022cc:	00001c17          	auipc	s8,0x1
800022d0:	eacc0c13          	addi	s8,s8,-340 # 80003178 <__clz_tab+0x13c>
800022d4:	02800513          	li	a0,40
800022d8:	eefb16e3          	bne	s6,a5,800021c4 <vprintfmt.constprop.1+0x24c>
800022dc:	f29ff06f          	j	80002204 <vprintfmt.constprop.1+0x28c>
800022e0:	000e8e13          	mv	t3,t4
800022e4:	00040713          	mv	a4,s0
800022e8:	dfdff06f          	j	800020e4 <vprintfmt.constprop.1+0x16c>
800022ec:	02800513          	li	a0,40
800022f0:	00001c17          	auipc	s8,0x1
800022f4:	e88c0c13          	addi	s8,s8,-376 # 80003178 <__clz_tab+0x13c>
800022f8:	f0dff06f          	j	80002204 <vprintfmt.constprop.1+0x28c>
800022fc:	00088613          	mv	a2,a7
80002300:	e59ff06f          	j	80002158 <vprintfmt.constprop.1+0x1e0>
80002304:	01112623          	sw	a7,12(sp)
80002308:	00a00c93          	li	s9,10
8000230c:	d85ff06f          	j	80002090 <vprintfmt.constprop.1+0x118>
80002310:	00088613          	mv	a2,a7
80002314:	e95ff06f          	j	800021a8 <vprintfmt.constprop.1+0x230>
80002318:	01112623          	sw	a7,12(sp)
8000231c:	e65ff06f          	j	80002180 <vprintfmt.constprop.1+0x208>
80002320:	01112623          	sw	a7,12(sp)
80002324:	00800c93          	li	s9,8
80002328:	d69ff06f          	j	80002090 <vprintfmt.constprop.1+0x118>
8000232c:	01112623          	sw	a7,12(sp)
80002330:	d91ff06f          	j	800020c0 <vprintfmt.constprop.1+0x148>
80002334:	01112623          	sw	a7,12(sp)
80002338:	d55ff06f          	j	8000208c <vprintfmt.constprop.1+0x114>
8000233c:	01112623          	sw	a7,12(sp)
80002340:	f65ff06f          	j	800022a4 <vprintfmt.constprop.1+0x32c>
80002344:	01112623          	sw	a7,12(sp)
80002348:	f11ff06f          	j	80002258 <vprintfmt.constprop.1+0x2e0>

8000234c <printf>:
8000234c:	fc010113          	addi	sp,sp,-64
80002350:	02410313          	addi	t1,sp,36
80002354:	02b12223          	sw	a1,36(sp)
80002358:	00030593          	mv	a1,t1
8000235c:	00112e23          	sw	ra,28(sp)
80002360:	02c12423          	sw	a2,40(sp)
80002364:	02d12623          	sw	a3,44(sp)
80002368:	02e12823          	sw	a4,48(sp)
8000236c:	02f12a23          	sw	a5,52(sp)
80002370:	03012c23          	sw	a6,56(sp)
80002374:	03112e23          	sw	a7,60(sp)
80002378:	00612623          	sw	t1,12(sp)
8000237c:	bfdff0ef          	jal	80001f78 <vprintfmt.constprop.1>
80002380:	01c12083          	lw	ra,28(sp)
80002384:	00000513          	li	a0,0
80002388:	04010113          	addi	sp,sp,64
8000238c:	00008067          	ret

80002390 <strcmp>:
80002390:	00150513          	addi	a0,a0,1
80002394:	fff54783          	lbu	a5,-1(a0)
80002398:	00158593          	addi	a1,a1,1
8000239c:	fff5c703          	lbu	a4,-1(a1)
800023a0:	00078863          	beqz	a5,800023b0 <strcmp+0x20>
800023a4:	fee786e3          	beq	a5,a4,80002390 <strcmp>
800023a8:	40e78533          	sub	a0,a5,a4
800023ac:	00008067          	ret
800023b0:	00000793          	li	a5,0
800023b4:	ff5ff06f          	j	800023a8 <strcmp+0x18>

800023b8 <strcpy>:
800023b8:	00050793          	mv	a5,a0
800023bc:	00158593          	addi	a1,a1,1
800023c0:	fff5c703          	lbu	a4,-1(a1)
800023c4:	00178793          	addi	a5,a5,1
800023c8:	fee78fa3          	sb	a4,-1(a5)
800023cc:	fe0718e3          	bnez	a4,800023bc <strcpy+0x4>
800023d0:	00008067          	ret

800023d4 <atol>:
800023d4:	00054703          	lbu	a4,0(a0)
800023d8:	02000693          	li	a3,32
800023dc:	00050793          	mv	a5,a0
800023e0:	00d71a63          	bne	a4,a3,800023f4 <atol+0x20>
800023e4:	00070693          	mv	a3,a4
800023e8:	00178793          	addi	a5,a5,1
800023ec:	0007c703          	lbu	a4,0(a5)
800023f0:	fed70ce3          	beq	a4,a3,800023e8 <atol+0x14>
800023f4:	fd570693          	addi	a3,a4,-43
800023f8:	0fd6f693          	andi	a3,a3,253
800023fc:	04068063          	beqz	a3,8000243c <atol+0x68>
80002400:	00000593          	li	a1,0
80002404:	04070a63          	beqz	a4,80002458 <atol+0x84>
80002408:	00000693          	li	a3,0
8000240c:	00178793          	addi	a5,a5,1
80002410:	00269513          	slli	a0,a3,0x2
80002414:	fd070613          	addi	a2,a4,-48
80002418:	0007c703          	lbu	a4,0(a5)
8000241c:	00d50533          	add	a0,a0,a3
80002420:	00151513          	slli	a0,a0,0x1
80002424:	00a606b3          	add	a3,a2,a0
80002428:	fe0712e3          	bnez	a4,8000240c <atol+0x38>
8000242c:	00058463          	beqz	a1,80002434 <atol+0x60>
80002430:	40d006b3          	neg	a3,a3
80002434:	00068513          	mv	a0,a3
80002438:	00008067          	ret
8000243c:	fd370593          	addi	a1,a4,-45
80002440:	0017c703          	lbu	a4,1(a5)
80002444:	0015b593          	seqz	a1,a1
80002448:	00178793          	addi	a5,a5,1
8000244c:	fa071ee3          	bnez	a4,80002408 <atol+0x34>
80002450:	00000693          	li	a3,0
80002454:	fd9ff06f          	j	8000242c <atol+0x58>
80002458:	00000693          	li	a3,0
8000245c:	fd9ff06f          	j	80002434 <atol+0x60>

80002460 <__udivdi3>:
80002460:	00068313          	mv	t1,a3
80002464:	00060893          	mv	a7,a2
80002468:	00050e13          	mv	t3,a0
8000246c:	00058813          	mv	a6,a1
80002470:	0c069e63          	bnez	a3,8000254c <__udivdi3+0xec>
80002474:	12c5f863          	bleu	a2,a1,800025a4 <__udivdi3+0x144>
80002478:	000107b7          	lui	a5,0x10
8000247c:	22f67663          	bleu	a5,a2,800026a8 <__udivdi3+0x248>
80002480:	0ff00793          	li	a5,255
80002484:	00c7f463          	bleu	a2,a5,8000248c <__udivdi3+0x2c>
80002488:	00800313          	li	t1,8
8000248c:	80003737          	lui	a4,0x80003
80002490:	006657b3          	srl	a5,a2,t1
80002494:	03c70713          	addi	a4,a4,60 # 8000303c <__global_pointer$+0xfffff674>
80002498:	00e787b3          	add	a5,a5,a4
8000249c:	0007c783          	lbu	a5,0(a5) # 10000 <_tbss_end+0x10000>
800024a0:	00678333          	add	t1,a5,t1
800024a4:	02000793          	li	a5,32
800024a8:	406787b3          	sub	a5,a5,t1
800024ac:	00078c63          	beqz	a5,800024c4 <__udivdi3+0x64>
800024b0:	00f59733          	sll	a4,a1,a5
800024b4:	00655333          	srl	t1,a0,t1
800024b8:	00f618b3          	sll	a7,a2,a5
800024bc:	00e36833          	or	a6,t1,a4
800024c0:	00f51e33          	sll	t3,a0,a5
800024c4:	0108d593          	srli	a1,a7,0x10
800024c8:	02b85733          	divu	a4,a6,a1
800024cc:	01089613          	slli	a2,a7,0x10
800024d0:	01065613          	srli	a2,a2,0x10
800024d4:	010e5793          	srli	a5,t3,0x10
800024d8:	02b876b3          	remu	a3,a6,a1
800024dc:	02e60533          	mul	a0,a2,a4
800024e0:	01069693          	slli	a3,a3,0x10
800024e4:	00f6e833          	or	a6,a3,a5
800024e8:	00a87c63          	bleu	a0,a6,80002500 <__udivdi3+0xa0>
800024ec:	01180833          	add	a6,a6,a7
800024f0:	fff70793          	addi	a5,a4,-1
800024f4:	01186463          	bltu	a6,a7,800024fc <__udivdi3+0x9c>
800024f8:	3ca86863          	bltu	a6,a0,800028c8 <__udivdi3+0x468>
800024fc:	00078713          	mv	a4,a5
80002500:	40a80833          	sub	a6,a6,a0
80002504:	02b85533          	divu	a0,a6,a1
80002508:	010e1e13          	slli	t3,t3,0x10
8000250c:	010e5e13          	srli	t3,t3,0x10
80002510:	02b87833          	remu	a6,a6,a1
80002514:	02a60633          	mul	a2,a2,a0
80002518:	01081813          	slli	a6,a6,0x10
8000251c:	01c86833          	or	a6,a6,t3
80002520:	00c87c63          	bleu	a2,a6,80002538 <__udivdi3+0xd8>
80002524:	01088833          	add	a6,a7,a6
80002528:	fff50793          	addi	a5,a0,-1
8000252c:	33186663          	bltu	a6,a7,80002858 <__udivdi3+0x3f8>
80002530:	ffe50513          	addi	a0,a0,-2
80002534:	32c87263          	bleu	a2,a6,80002858 <__udivdi3+0x3f8>
80002538:	01071793          	slli	a5,a4,0x10
8000253c:	00a7e7b3          	or	a5,a5,a0
80002540:	00000593          	li	a1,0
80002544:	00078513          	mv	a0,a5
80002548:	00008067          	ret
8000254c:	12d5e663          	bltu	a1,a3,80002678 <__udivdi3+0x218>
80002550:	000107b7          	lui	a5,0x10
80002554:	12f6ea63          	bltu	a3,a5,80002688 <__udivdi3+0x228>
80002558:	01000737          	lui	a4,0x1000
8000255c:	01800793          	li	a5,24
80002560:	00e6f463          	bleu	a4,a3,80002568 <__udivdi3+0x108>
80002564:	01000793          	li	a5,16
80002568:	800038b7          	lui	a7,0x80003
8000256c:	00f6d733          	srl	a4,a3,a5
80002570:	03c88893          	addi	a7,a7,60 # 8000303c <__global_pointer$+0xfffff674>
80002574:	01170733          	add	a4,a4,a7
80002578:	00074e03          	lbu	t3,0(a4) # 1000000 <_tbss_end+0x1000000>
8000257c:	02000e93          	li	t4,32
80002580:	00fe0e33          	add	t3,t3,a5
80002584:	41ce8eb3          	sub	t4,t4,t3
80002588:	120e9a63          	bnez	t4,800026bc <__udivdi3+0x25c>
8000258c:	00000593          	li	a1,0
80002590:	00100793          	li	a5,1
80002594:	0f036663          	bltu	t1,a6,80002680 <__udivdi3+0x220>
80002598:	00c537b3          	sltu	a5,a0,a2
8000259c:	0017c793          	xori	a5,a5,1
800025a0:	0e00006f          	j	80002680 <__udivdi3+0x220>
800025a4:	00061663          	bnez	a2,800025b0 <__udivdi3+0x150>
800025a8:	00100893          	li	a7,1
800025ac:	02c8d8b3          	divu	a7,a7,a2
800025b0:	000107b7          	lui	a5,0x10
800025b4:	0ef8e263          	bltu	a7,a5,80002698 <__udivdi3+0x238>
800025b8:	010007b7          	lui	a5,0x1000
800025bc:	01800313          	li	t1,24
800025c0:	00f8f463          	bleu	a5,a7,800025c8 <__udivdi3+0x168>
800025c4:	01000313          	li	t1,16
800025c8:	80003737          	lui	a4,0x80003
800025cc:	0068d7b3          	srl	a5,a7,t1
800025d0:	03c70713          	addi	a4,a4,60 # 8000303c <__global_pointer$+0xfffff674>
800025d4:	00e787b3          	add	a5,a5,a4
800025d8:	0007c783          	lbu	a5,0(a5) # 1000000 <_tbss_end+0x1000000>
800025dc:	00678333          	add	t1,a5,t1
800025e0:	02000793          	li	a5,32
800025e4:	406787b3          	sub	a5,a5,t1
800025e8:	1c079263          	bnez	a5,800027ac <__udivdi3+0x34c>
800025ec:	01089f13          	slli	t5,a7,0x10
800025f0:	41158733          	sub	a4,a1,a7
800025f4:	0108de93          	srli	t4,a7,0x10
800025f8:	010f5f13          	srli	t5,t5,0x10
800025fc:	00100593          	li	a1,1
80002600:	010e5793          	srli	a5,t3,0x10
80002604:	03d756b3          	divu	a3,a4,t4
80002608:	03d77733          	remu	a4,a4,t4
8000260c:	03e68633          	mul	a2,a3,t5
80002610:	01071713          	slli	a4,a4,0x10
80002614:	00f767b3          	or	a5,a4,a5
80002618:	00c7fc63          	bleu	a2,a5,80002630 <__udivdi3+0x1d0>
8000261c:	011787b3          	add	a5,a5,a7
80002620:	fff68713          	addi	a4,a3,-1
80002624:	0117e463          	bltu	a5,a7,8000262c <__udivdi3+0x1cc>
80002628:	28c7ea63          	bltu	a5,a2,800028bc <__udivdi3+0x45c>
8000262c:	00070693          	mv	a3,a4
80002630:	40c787b3          	sub	a5,a5,a2
80002634:	03d7d533          	divu	a0,a5,t4
80002638:	010e1e13          	slli	t3,t3,0x10
8000263c:	010e5e13          	srli	t3,t3,0x10
80002640:	03d7f7b3          	remu	a5,a5,t4
80002644:	03e50f33          	mul	t5,a0,t5
80002648:	01079793          	slli	a5,a5,0x10
8000264c:	01c7e7b3          	or	a5,a5,t3
80002650:	01e7fc63          	bleu	t5,a5,80002668 <__udivdi3+0x208>
80002654:	00f887b3          	add	a5,a7,a5
80002658:	fff50713          	addi	a4,a0,-1
8000265c:	1f17ea63          	bltu	a5,a7,80002850 <__udivdi3+0x3f0>
80002660:	ffe50513          	addi	a0,a0,-2
80002664:	1fe7f663          	bleu	t5,a5,80002850 <__udivdi3+0x3f0>
80002668:	01069793          	slli	a5,a3,0x10
8000266c:	00a7e7b3          	or	a5,a5,a0
80002670:	00078513          	mv	a0,a5
80002674:	00008067          	ret
80002678:	00000593          	li	a1,0
8000267c:	00000793          	li	a5,0
80002680:	00078513          	mv	a0,a5
80002684:	00008067          	ret
80002688:	0ff00e13          	li	t3,255
8000268c:	00de37b3          	sltu	a5,t3,a3
80002690:	00379793          	slli	a5,a5,0x3
80002694:	ed5ff06f          	j	80002568 <__udivdi3+0x108>
80002698:	0ff00793          	li	a5,255
8000269c:	f317f6e3          	bleu	a7,a5,800025c8 <__udivdi3+0x168>
800026a0:	00800313          	li	t1,8
800026a4:	f25ff06f          	j	800025c8 <__udivdi3+0x168>
800026a8:	010007b7          	lui	a5,0x1000
800026ac:	01800313          	li	t1,24
800026b0:	dcf67ee3          	bleu	a5,a2,8000248c <__udivdi3+0x2c>
800026b4:	01000313          	li	t1,16
800026b8:	dd5ff06f          	j	8000248c <__udivdi3+0x2c>
800026bc:	01c65833          	srl	a6,a2,t3
800026c0:	01d696b3          	sll	a3,a3,t4
800026c4:	00d86833          	or	a6,a6,a3
800026c8:	01c5d8b3          	srl	a7,a1,t3
800026cc:	01085f13          	srli	t5,a6,0x10
800026d0:	03e8d333          	divu	t1,a7,t5
800026d4:	01081713          	slli	a4,a6,0x10
800026d8:	01075713          	srli	a4,a4,0x10
800026dc:	01d595b3          	sll	a1,a1,t4
800026e0:	01c55e33          	srl	t3,a0,t3
800026e4:	00be65b3          	or	a1,t3,a1
800026e8:	0105d693          	srli	a3,a1,0x10
800026ec:	01d61633          	sll	a2,a2,t4
800026f0:	03e8f8b3          	remu	a7,a7,t5
800026f4:	026707b3          	mul	a5,a4,t1
800026f8:	01089893          	slli	a7,a7,0x10
800026fc:	00d8e6b3          	or	a3,a7,a3
80002700:	00f6fa63          	bleu	a5,a3,80002714 <__udivdi3+0x2b4>
80002704:	010686b3          	add	a3,a3,a6
80002708:	fff30893          	addi	a7,t1,-1
8000270c:	1906f863          	bleu	a6,a3,8000289c <__udivdi3+0x43c>
80002710:	00088313          	mv	t1,a7
80002714:	40f686b3          	sub	a3,a3,a5
80002718:	03e6de33          	divu	t3,a3,t5
8000271c:	01059593          	slli	a1,a1,0x10
80002720:	0105d593          	srli	a1,a1,0x10
80002724:	03e6f6b3          	remu	a3,a3,t5
80002728:	03c708b3          	mul	a7,a4,t3
8000272c:	01069693          	slli	a3,a3,0x10
80002730:	00b6e733          	or	a4,a3,a1
80002734:	01177a63          	bleu	a7,a4,80002748 <__udivdi3+0x2e8>
80002738:	01070733          	add	a4,a4,a6
8000273c:	fffe0793          	addi	a5,t3,-1
80002740:	15077663          	bleu	a6,a4,8000288c <__udivdi3+0x42c>
80002744:	00078e13          	mv	t3,a5
80002748:	01031793          	slli	a5,t1,0x10
8000274c:	00010f37          	lui	t5,0x10
80002750:	01c7e7b3          	or	a5,a5,t3
80002754:	ffff0693          	addi	a3,t5,-1 # ffff <_tbss_end+0xffff>
80002758:	00d7f5b3          	and	a1,a5,a3
8000275c:	0107d313          	srli	t1,a5,0x10
80002760:	00d676b3          	and	a3,a2,a3
80002764:	01065613          	srli	a2,a2,0x10
80002768:	02d58e33          	mul	t3,a1,a3
8000276c:	41170733          	sub	a4,a4,a7
80002770:	02c585b3          	mul	a1,a1,a2
80002774:	010e5813          	srli	a6,t3,0x10
80002778:	02d306b3          	mul	a3,t1,a3
8000277c:	00d585b3          	add	a1,a1,a3
80002780:	00b805b3          	add	a1,a6,a1
80002784:	02c30633          	mul	a2,t1,a2
80002788:	00d5f463          	bleu	a3,a1,80002790 <__udivdi3+0x330>
8000278c:	01e60633          	add	a2,a2,t5
80002790:	0105d693          	srli	a3,a1,0x10
80002794:	00c68633          	add	a2,a3,a2
80002798:	0ec76463          	bltu	a4,a2,80002880 <__udivdi3+0x420>
8000279c:	0cc70263          	beq	a4,a2,80002860 <__udivdi3+0x400>
800027a0:	00000593          	li	a1,0
800027a4:	00078513          	mv	a0,a5
800027a8:	00008067          	ret
800027ac:	00f898b3          	sll	a7,a7,a5
800027b0:	0065d633          	srl	a2,a1,t1
800027b4:	0108de93          	srli	t4,a7,0x10
800027b8:	03d65fb3          	divu	t6,a2,t4
800027bc:	01089f13          	slli	t5,a7,0x10
800027c0:	010f5f13          	srli	t5,t5,0x10
800027c4:	00f59733          	sll	a4,a1,a5
800027c8:	00f51e33          	sll	t3,a0,a5
800027cc:	00655333          	srl	t1,a0,t1
800027d0:	00e36733          	or	a4,t1,a4
800027d4:	01075593          	srli	a1,a4,0x10
800027d8:	03d676b3          	remu	a3,a2,t4
800027dc:	03ff07b3          	mul	a5,t5,t6
800027e0:	01069693          	slli	a3,a3,0x10
800027e4:	00b6e6b3          	or	a3,a3,a1
800027e8:	00f6fe63          	bleu	a5,a3,80002804 <__udivdi3+0x3a4>
800027ec:	011686b3          	add	a3,a3,a7
800027f0:	ffff8613          	addi	a2,t6,-1
800027f4:	0d16e063          	bltu	a3,a7,800028b4 <__udivdi3+0x454>
800027f8:	0af6fe63          	bleu	a5,a3,800028b4 <__udivdi3+0x454>
800027fc:	ffef8f93          	addi	t6,t6,-2
80002800:	011686b3          	add	a3,a3,a7
80002804:	40f686b3          	sub	a3,a3,a5
80002808:	03d6d7b3          	divu	a5,a3,t4
8000280c:	01071313          	slli	t1,a4,0x10
80002810:	01035313          	srli	t1,t1,0x10
80002814:	03d6f6b3          	remu	a3,a3,t4
80002818:	02ff0633          	mul	a2,t5,a5
8000281c:	01069713          	slli	a4,a3,0x10
80002820:	00676733          	or	a4,a4,t1
80002824:	00c77e63          	bleu	a2,a4,80002840 <__udivdi3+0x3e0>
80002828:	01170733          	add	a4,a4,a7
8000282c:	fff78693          	addi	a3,a5,-1 # ffffff <_tbss_end+0xffffff>
80002830:	07176e63          	bltu	a4,a7,800028ac <__udivdi3+0x44c>
80002834:	06c77c63          	bleu	a2,a4,800028ac <__udivdi3+0x44c>
80002838:	ffe78793          	addi	a5,a5,-2
8000283c:	01170733          	add	a4,a4,a7
80002840:	010f9593          	slli	a1,t6,0x10
80002844:	40c70733          	sub	a4,a4,a2
80002848:	00f5e5b3          	or	a1,a1,a5
8000284c:	db5ff06f          	j	80002600 <__udivdi3+0x1a0>
80002850:	00070513          	mv	a0,a4
80002854:	e15ff06f          	j	80002668 <__udivdi3+0x208>
80002858:	00078513          	mv	a0,a5
8000285c:	cddff06f          	j	80002538 <__udivdi3+0xd8>
80002860:	000106b7          	lui	a3,0x10
80002864:	fff68693          	addi	a3,a3,-1 # ffff <_tbss_end+0xffff>
80002868:	00d5f733          	and	a4,a1,a3
8000286c:	01071713          	slli	a4,a4,0x10
80002870:	00de7e33          	and	t3,t3,a3
80002874:	01d51533          	sll	a0,a0,t4
80002878:	01c70733          	add	a4,a4,t3
8000287c:	f2e572e3          	bleu	a4,a0,800027a0 <__udivdi3+0x340>
80002880:	fff78793          	addi	a5,a5,-1
80002884:	00000593          	li	a1,0
80002888:	f1dff06f          	j	800027a4 <__udivdi3+0x344>
8000288c:	eb177ce3          	bleu	a7,a4,80002744 <__udivdi3+0x2e4>
80002890:	ffee0e13          	addi	t3,t3,-2
80002894:	01070733          	add	a4,a4,a6
80002898:	eb1ff06f          	j	80002748 <__udivdi3+0x2e8>
8000289c:	e6f6fae3          	bleu	a5,a3,80002710 <__udivdi3+0x2b0>
800028a0:	ffe30313          	addi	t1,t1,-2
800028a4:	010686b3          	add	a3,a3,a6
800028a8:	e6dff06f          	j	80002714 <__udivdi3+0x2b4>
800028ac:	00068793          	mv	a5,a3
800028b0:	f91ff06f          	j	80002840 <__udivdi3+0x3e0>
800028b4:	00060f93          	mv	t6,a2
800028b8:	f4dff06f          	j	80002804 <__udivdi3+0x3a4>
800028bc:	ffe68693          	addi	a3,a3,-2
800028c0:	011787b3          	add	a5,a5,a7
800028c4:	d6dff06f          	j	80002630 <__udivdi3+0x1d0>
800028c8:	ffe70713          	addi	a4,a4,-2
800028cc:	01180833          	add	a6,a6,a7
800028d0:	c31ff06f          	j	80002500 <__udivdi3+0xa0>

800028d4 <__umoddi3>:
800028d4:	00068893          	mv	a7,a3
800028d8:	00060813          	mv	a6,a2
800028dc:	00050e93          	mv	t4,a0
800028e0:	00058313          	mv	t1,a1
800028e4:	0c069863          	bnez	a3,800029b4 <__umoddi3+0xe0>
800028e8:	12c5fa63          	bleu	a2,a1,80002a1c <__umoddi3+0x148>
800028ec:	000107b7          	lui	a5,0x10
800028f0:	1ef66c63          	bltu	a2,a5,80002ae8 <__umoddi3+0x214>
800028f4:	010007b7          	lui	a5,0x1000
800028f8:	01800893          	li	a7,24
800028fc:	00f67463          	bleu	a5,a2,80002904 <__umoddi3+0x30>
80002900:	01000893          	li	a7,16
80002904:	80003737          	lui	a4,0x80003
80002908:	011657b3          	srl	a5,a2,a7
8000290c:	03c70713          	addi	a4,a4,60 # 8000303c <__global_pointer$+0xfffff674>
80002910:	00e787b3          	add	a5,a5,a4
80002914:	0007c783          	lbu	a5,0(a5) # 1000000 <_tbss_end+0x1000000>
80002918:	02000e13          	li	t3,32
8000291c:	011788b3          	add	a7,a5,a7
80002920:	411e0e33          	sub	t3,t3,a7
80002924:	000e0c63          	beqz	t3,8000293c <__umoddi3+0x68>
80002928:	01c595b3          	sll	a1,a1,t3
8000292c:	011558b3          	srl	a7,a0,a7
80002930:	01c61833          	sll	a6,a2,t3
80002934:	00b8e333          	or	t1,a7,a1
80002938:	01c51eb3          	sll	t4,a0,t3
8000293c:	01085613          	srli	a2,a6,0x10
80002940:	02c357b3          	divu	a5,t1,a2
80002944:	01081513          	slli	a0,a6,0x10
80002948:	01055513          	srli	a0,a0,0x10
8000294c:	010ed713          	srli	a4,t4,0x10
80002950:	02c376b3          	remu	a3,t1,a2
80002954:	02f507b3          	mul	a5,a0,a5
80002958:	01069693          	slli	a3,a3,0x10
8000295c:	00e6e733          	or	a4,a3,a4
80002960:	00f77863          	bleu	a5,a4,80002970 <__umoddi3+0x9c>
80002964:	01070733          	add	a4,a4,a6
80002968:	01076463          	bltu	a4,a6,80002970 <__umoddi3+0x9c>
8000296c:	36f76c63          	bltu	a4,a5,80002ce4 <__umoddi3+0x410>
80002970:	40f70733          	sub	a4,a4,a5
80002974:	02c756b3          	divu	a3,a4,a2
80002978:	010e9793          	slli	a5,t4,0x10
8000297c:	0107d793          	srli	a5,a5,0x10
80002980:	02c77733          	remu	a4,a4,a2
80002984:	02d50533          	mul	a0,a0,a3
80002988:	01071713          	slli	a4,a4,0x10
8000298c:	00f767b3          	or	a5,a4,a5
80002990:	00a7fa63          	bleu	a0,a5,800029a4 <__umoddi3+0xd0>
80002994:	010787b3          	add	a5,a5,a6
80002998:	0107e663          	bltu	a5,a6,800029a4 <__umoddi3+0xd0>
8000299c:	00a7f463          	bleu	a0,a5,800029a4 <__umoddi3+0xd0>
800029a0:	010787b3          	add	a5,a5,a6
800029a4:	40a78533          	sub	a0,a5,a0
800029a8:	01c55533          	srl	a0,a0,t3
800029ac:	00000593          	li	a1,0
800029b0:	00008067          	ret
800029b4:	fed5eee3          	bltu	a1,a3,800029b0 <__umoddi3+0xdc>
800029b8:	000107b7          	lui	a5,0x10
800029bc:	10f6e663          	bltu	a3,a5,80002ac8 <__umoddi3+0x1f4>
800029c0:	01000737          	lui	a4,0x1000
800029c4:	01800793          	li	a5,24
800029c8:	00e6f463          	bleu	a4,a3,800029d0 <__umoddi3+0xfc>
800029cc:	01000793          	li	a5,16
800029d0:	80003e37          	lui	t3,0x80003
800029d4:	03ce0e13          	addi	t3,t3,60 # 8000303c <__global_pointer$+0xfffff674>
800029d8:	00f6d733          	srl	a4,a3,a5
800029dc:	01c70733          	add	a4,a4,t3
800029e0:	00074f03          	lbu	t5,0(a4) # 1000000 <_tbss_end+0x1000000>
800029e4:	02000e13          	li	t3,32
800029e8:	00ff0f33          	add	t5,t5,a5
800029ec:	41ee0e33          	sub	t3,t3,t5
800029f0:	100e1463          	bnez	t3,80002af8 <__umoddi3+0x224>
800029f4:	0068e663          	bltu	a7,t1,80002a00 <__umoddi3+0x12c>
800029f8:	00050793          	mv	a5,a0
800029fc:	010eea63          	bltu	t4,a6,80002a10 <__umoddi3+0x13c>
80002a00:	40c507b3          	sub	a5,a0,a2
80002a04:	40d585b3          	sub	a1,a1,a3
80002a08:	00f536b3          	sltu	a3,a0,a5
80002a0c:	40d58333          	sub	t1,a1,a3
80002a10:	00078513          	mv	a0,a5
80002a14:	00030593          	mv	a1,t1
80002a18:	00008067          	ret
80002a1c:	00061663          	bnez	a2,80002a28 <__umoddi3+0x154>
80002a20:	00100813          	li	a6,1
80002a24:	02c85833          	divu	a6,a6,a2
80002a28:	000107b7          	lui	a5,0x10
80002a2c:	0af86663          	bltu	a6,a5,80002ad8 <__umoddi3+0x204>
80002a30:	010007b7          	lui	a5,0x1000
80002a34:	01800893          	li	a7,24
80002a38:	00f87463          	bleu	a5,a6,80002a40 <__umoddi3+0x16c>
80002a3c:	01000893          	li	a7,16
80002a40:	80003737          	lui	a4,0x80003
80002a44:	011857b3          	srl	a5,a6,a7
80002a48:	03c70713          	addi	a4,a4,60 # 8000303c <__global_pointer$+0xfffff674>
80002a4c:	00e787b3          	add	a5,a5,a4
80002a50:	0007c783          	lbu	a5,0(a5) # 1000000 <_tbss_end+0x1000000>
80002a54:	02000e13          	li	t3,32
80002a58:	011788b3          	add	a7,a5,a7
80002a5c:	411e0e33          	sub	t3,t3,a7
80002a60:	1c0e1063          	bnez	t3,80002c20 <__umoddi3+0x34c>
80002a64:	01081793          	slli	a5,a6,0x10
80002a68:	410585b3          	sub	a1,a1,a6
80002a6c:	01085613          	srli	a2,a6,0x10
80002a70:	0107d793          	srli	a5,a5,0x10
80002a74:	010ed713          	srli	a4,t4,0x10
80002a78:	02c5d6b3          	divu	a3,a1,a2
80002a7c:	02c5f5b3          	remu	a1,a1,a2
80002a80:	02f686b3          	mul	a3,a3,a5
80002a84:	01059593          	slli	a1,a1,0x10
80002a88:	00e5e733          	or	a4,a1,a4
80002a8c:	00d77a63          	bleu	a3,a4,80002aa0 <__umoddi3+0x1cc>
80002a90:	01070733          	add	a4,a4,a6
80002a94:	01076663          	bltu	a4,a6,80002aa0 <__umoddi3+0x1cc>
80002a98:	00d77463          	bleu	a3,a4,80002aa0 <__umoddi3+0x1cc>
80002a9c:	01070733          	add	a4,a4,a6
80002aa0:	40d70733          	sub	a4,a4,a3
80002aa4:	02c75533          	divu	a0,a4,a2
80002aa8:	010e9e93          	slli	t4,t4,0x10
80002aac:	010ede93          	srli	t4,t4,0x10
80002ab0:	02c77733          	remu	a4,a4,a2
80002ab4:	02f50533          	mul	a0,a0,a5
80002ab8:	01071713          	slli	a4,a4,0x10
80002abc:	01d767b3          	or	a5,a4,t4
80002ac0:	eea7f2e3          	bleu	a0,a5,800029a4 <__umoddi3+0xd0>
80002ac4:	ed1ff06f          	j	80002994 <__umoddi3+0xc0>
80002ac8:	0ff00f13          	li	t5,255
80002acc:	00df37b3          	sltu	a5,t5,a3
80002ad0:	00379793          	slli	a5,a5,0x3
80002ad4:	efdff06f          	j	800029d0 <__umoddi3+0xfc>
80002ad8:	0ff00793          	li	a5,255
80002adc:	f707f2e3          	bleu	a6,a5,80002a40 <__umoddi3+0x16c>
80002ae0:	00800893          	li	a7,8
80002ae4:	f5dff06f          	j	80002a40 <__umoddi3+0x16c>
80002ae8:	0ff00793          	li	a5,255
80002aec:	e0c7fce3          	bleu	a2,a5,80002904 <__umoddi3+0x30>
80002af0:	00800893          	li	a7,8
80002af4:	e11ff06f          	j	80002904 <__umoddi3+0x30>
80002af8:	01e657b3          	srl	a5,a2,t5
80002afc:	01c696b3          	sll	a3,a3,t3
80002b00:	00d7e6b3          	or	a3,a5,a3
80002b04:	01e5d8b3          	srl	a7,a1,t5
80002b08:	0106d713          	srli	a4,a3,0x10
80002b0c:	02e8d333          	divu	t1,a7,a4
80002b10:	01069f93          	slli	t6,a3,0x10
80002b14:	01e557b3          	srl	a5,a0,t5
80002b18:	010fdf93          	srli	t6,t6,0x10
80002b1c:	01c595b3          	sll	a1,a1,t3
80002b20:	00b7e5b3          	or	a1,a5,a1
80002b24:	01c617b3          	sll	a5,a2,t3
80002b28:	0105d813          	srli	a6,a1,0x10
80002b2c:	01c51533          	sll	a0,a0,t3
80002b30:	02e8f8b3          	remu	a7,a7,a4
80002b34:	026f8633          	mul	a2,t6,t1
80002b38:	01089893          	slli	a7,a7,0x10
80002b3c:	0108e833          	or	a6,a7,a6
80002b40:	00c87a63          	bleu	a2,a6,80002b54 <__umoddi3+0x280>
80002b44:	00d80833          	add	a6,a6,a3
80002b48:	fff30893          	addi	a7,t1,-1
80002b4c:	18d87463          	bleu	a3,a6,80002cd4 <__umoddi3+0x400>
80002b50:	00088313          	mv	t1,a7
80002b54:	40c80833          	sub	a6,a6,a2
80002b58:	02e85633          	divu	a2,a6,a4
80002b5c:	01059593          	slli	a1,a1,0x10
80002b60:	0105d593          	srli	a1,a1,0x10
80002b64:	02e87833          	remu	a6,a6,a4
80002b68:	02cf8fb3          	mul	t6,t6,a2
80002b6c:	01081713          	slli	a4,a6,0x10
80002b70:	00b76733          	or	a4,a4,a1
80002b74:	01f77a63          	bleu	t6,a4,80002b88 <__umoddi3+0x2b4>
80002b78:	00d70733          	add	a4,a4,a3
80002b7c:	fff60593          	addi	a1,a2,-1
80002b80:	14d77263          	bleu	a3,a4,80002cc4 <__umoddi3+0x3f0>
80002b84:	00058613          	mv	a2,a1
80002b88:	01031313          	slli	t1,t1,0x10
80002b8c:	000105b7          	lui	a1,0x10
80002b90:	00c36333          	or	t1,t1,a2
80002b94:	fff58893          	addi	a7,a1,-1 # ffff <_tbss_end+0xffff>
80002b98:	01137eb3          	and	t4,t1,a7
80002b9c:	0107d613          	srli	a2,a5,0x10
80002ba0:	01035313          	srli	t1,t1,0x10
80002ba4:	0117f8b3          	and	a7,a5,a7
80002ba8:	031e82b3          	mul	t0,t4,a7
80002bac:	41f70733          	sub	a4,a4,t6
80002bb0:	02ce8eb3          	mul	t4,t4,a2
80002bb4:	0102d813          	srli	a6,t0,0x10
80002bb8:	031308b3          	mul	a7,t1,a7
80002bbc:	011e8eb3          	add	t4,t4,a7
80002bc0:	01d80833          	add	a6,a6,t4
80002bc4:	02c30633          	mul	a2,t1,a2
80002bc8:	01187463          	bleu	a7,a6,80002bd0 <__umoddi3+0x2fc>
80002bcc:	00b60633          	add	a2,a2,a1
80002bd0:	000108b7          	lui	a7,0x10
80002bd4:	fff88893          	addi	a7,a7,-1 # ffff <_tbss_end+0xffff>
80002bd8:	01085593          	srli	a1,a6,0x10
80002bdc:	01187833          	and	a6,a6,a7
80002be0:	01081813          	slli	a6,a6,0x10
80002be4:	0112f2b3          	and	t0,t0,a7
80002be8:	00c58633          	add	a2,a1,a2
80002bec:	00580833          	add	a6,a6,t0
80002bf0:	0ac76e63          	bltu	a4,a2,80002cac <__umoddi3+0x3d8>
80002bf4:	0ec70c63          	beq	a4,a2,80002cec <__umoddi3+0x418>
80002bf8:	40c705b3          	sub	a1,a4,a2
80002bfc:	00080793          	mv	a5,a6
80002c00:	40f507b3          	sub	a5,a0,a5
80002c04:	00f53533          	sltu	a0,a0,a5
80002c08:	40a585b3          	sub	a1,a1,a0
80002c0c:	01e59f33          	sll	t5,a1,t5
80002c10:	01c7d533          	srl	a0,a5,t3
80002c14:	00af6533          	or	a0,t5,a0
80002c18:	01c5d5b3          	srl	a1,a1,t3
80002c1c:	00008067          	ret
80002c20:	01c81833          	sll	a6,a6,t3
80002c24:	0115d733          	srl	a4,a1,a7
80002c28:	01085613          	srli	a2,a6,0x10
80002c2c:	02c756b3          	divu	a3,a4,a2
80002c30:	01081793          	slli	a5,a6,0x10
80002c34:	0107d793          	srli	a5,a5,0x10
80002c38:	011558b3          	srl	a7,a0,a7
80002c3c:	01c51eb3          	sll	t4,a0,t3
80002c40:	01c595b3          	sll	a1,a1,t3
80002c44:	00b8e5b3          	or	a1,a7,a1
80002c48:	0105d893          	srli	a7,a1,0x10
80002c4c:	02c77733          	remu	a4,a4,a2
80002c50:	02d78533          	mul	a0,a5,a3
80002c54:	01071693          	slli	a3,a4,0x10
80002c58:	0116e6b3          	or	a3,a3,a7
80002c5c:	00a6fa63          	bleu	a0,a3,80002c70 <__umoddi3+0x39c>
80002c60:	010686b3          	add	a3,a3,a6
80002c64:	0106e663          	bltu	a3,a6,80002c70 <__umoddi3+0x39c>
80002c68:	00a6f463          	bleu	a0,a3,80002c70 <__umoddi3+0x39c>
80002c6c:	010686b3          	add	a3,a3,a6
80002c70:	40a686b3          	sub	a3,a3,a0
80002c74:	02c6d733          	divu	a4,a3,a2
80002c78:	01059893          	slli	a7,a1,0x10
80002c7c:	0108d893          	srli	a7,a7,0x10
80002c80:	02c6f6b3          	remu	a3,a3,a2
80002c84:	02e78733          	mul	a4,a5,a4
80002c88:	01069593          	slli	a1,a3,0x10
80002c8c:	0115e5b3          	or	a1,a1,a7
80002c90:	00e5fa63          	bleu	a4,a1,80002ca4 <__umoddi3+0x3d0>
80002c94:	010585b3          	add	a1,a1,a6
80002c98:	0105e663          	bltu	a1,a6,80002ca4 <__umoddi3+0x3d0>
80002c9c:	00e5f463          	bleu	a4,a1,80002ca4 <__umoddi3+0x3d0>
80002ca0:	010585b3          	add	a1,a1,a6
80002ca4:	40e585b3          	sub	a1,a1,a4
80002ca8:	dcdff06f          	j	80002a74 <__umoddi3+0x1a0>
80002cac:	40f807b3          	sub	a5,a6,a5
80002cb0:	40d605b3          	sub	a1,a2,a3
80002cb4:	00f83833          	sltu	a6,a6,a5
80002cb8:	410585b3          	sub	a1,a1,a6
80002cbc:	40b705b3          	sub	a1,a4,a1
80002cc0:	f41ff06f          	j	80002c00 <__umoddi3+0x32c>
80002cc4:	edf770e3          	bleu	t6,a4,80002b84 <__umoddi3+0x2b0>
80002cc8:	ffe60613          	addi	a2,a2,-2
80002ccc:	00d70733          	add	a4,a4,a3
80002cd0:	eb9ff06f          	j	80002b88 <__umoddi3+0x2b4>
80002cd4:	e6c87ee3          	bleu	a2,a6,80002b50 <__umoddi3+0x27c>
80002cd8:	ffe30313          	addi	t1,t1,-2
80002cdc:	00d80833          	add	a6,a6,a3
80002ce0:	e75ff06f          	j	80002b54 <__umoddi3+0x280>
80002ce4:	01070733          	add	a4,a4,a6
80002ce8:	c89ff06f          	j	80002970 <__umoddi3+0x9c>
80002cec:	fd0560e3          	bltu	a0,a6,80002cac <__umoddi3+0x3d8>
80002cf0:	00080793          	mv	a5,a6
80002cf4:	00000593          	li	a1,0
80002cf8:	f09ff06f          	j	80002c00 <__umoddi3+0x32c>

Disassembly of section .text.startup:

80002cfc <main>:
80002cfc:	ff010113          	addi	sp,sp,-16
80002d00:	00000517          	auipc	a0,0x0
80002d04:	43c50513          	addi	a0,a0,1084 # 8000313c <__clz_tab+0x100>
80002d08:	00112623          	sw	ra,12(sp)
80002d0c:	ffffe317          	auipc	t1,0xffffe
80002d10:	35c300e7          	jalr	t1,860 # 80001068 <_puts>
80002d14:	00a00613          	li	a2,10
80002d18:	00000593          	li	a1,0
80002d1c:	01c00513          	li	a0,28
80002d20:	ffffe317          	auipc	t1,0xffffe
80002d24:	380300e7          	jalr	t1,896 # 800010a0 <convert>
80002d28:	ffffe317          	auipc	t1,0xffffe
80002d2c:	340300e7          	jalr	t1,832 # 80001068 <_puts>
80002d30:	00000517          	auipc	a0,0x0
80002d34:	41450513          	addi	a0,a0,1044 # 80003144 <__clz_tab+0x108>
80002d38:	ffffe317          	auipc	t1,0xffffe
80002d3c:	330300e7          	jalr	t1,816 # 80001068 <_puts>
80002d40:	00c12083          	lw	ra,12(sp)
80002d44:	00000513          	li	a0,0
80002d48:	01010113          	addi	sp,sp,16
80002d4c:	00008067          	ret
80002d50:	ff010113          	addi	sp,sp,-16
80002d54:	00000517          	auipc	a0,0x0
80002d58:	40c50513          	addi	a0,a0,1036 # 80003160 <__clz_tab+0x124>
80002d5c:	00112623          	sw	ra,12(sp)
80002d60:	fffff317          	auipc	t1,0xfffff
80002d64:	a40300e7          	jalr	t1,-1472 # 800017a0 <printstr>
80002d68:	00c12083          	lw	ra,12(sp)
80002d6c:	fff00513          	li	a0,-1
80002d70:	01010113          	addi	sp,sp,16
80002d74:	00008067          	ret

Disassembly of section .rodata:

80002d78 <Representation.1439>:
80002d78:	3130                	fld	fa2,96(a0)
80002d7a:	3332                	fld	ft6,296(sp)
80002d7c:	3534                	fld	fa3,104(a0)
80002d7e:	3736                	fld	fa4,360(sp)
80002d80:	3938                	fld	fa4,112(a0)
80002d82:	4241                	li	tp,16
80002d84:	46454443          	0x46454443
80002d88:	0000                	unimp
80002d8a:	0000                	unimp
80002d8c:	ede8                	fsw	fa0,92(a1)
80002d8e:	ffff                	0xffff
80002d90:	f018                	fsw	fa4,32(s0)
80002d92:	ffff                	0xffff
80002d94:	ee24                	fsw	fs1,88(a2)
80002d96:	ffff                	0xffff
80002d98:	f018                	fsw	fa4,32(s0)
80002d9a:	ffff                	0xffff
80002d9c:	f018                	fsw	fa4,32(s0)
80002d9e:	ffff                	0xffff
80002da0:	f018                	fsw	fa4,32(s0)
80002da2:	ffff                	0xffff
80002da4:	f018                	fsw	fa4,32(s0)
80002da6:	ffff                	0xffff
80002da8:	ee38                	fsw	fa4,88(a2)
80002daa:	ffff                	0xffff
80002dac:	f018                	fsw	fa4,32(s0)
80002dae:	ffff                	0xffff
80002db0:	f018                	fsw	fa4,32(s0)
80002db2:	ffff                	0xffff
80002db4:	ee5c                	fsw	fa5,28(a2)
80002db6:	ffff                	0xffff
80002db8:	ede0                	fsw	fs0,92(a1)
80002dba:	ffff                	0xffff
80002dbc:	f018                	fsw	fa4,32(s0)
80002dbe:	ffff                	0xffff
80002dc0:	ee6c                	fsw	fa1,92(a2)
80002dc2:	ffff                	0xffff
80002dc4:	ee7c                	fsw	fa5,92(a2)
80002dc6:	ffff                	0xffff
80002dc8:	ee7c                	fsw	fa5,92(a2)
80002dca:	ffff                	0xffff
80002dcc:	ee7c                	fsw	fa5,92(a2)
80002dce:	ffff                	0xffff
80002dd0:	ee7c                	fsw	fa5,92(a2)
80002dd2:	ffff                	0xffff
80002dd4:	ee7c                	fsw	fa5,92(a2)
80002dd6:	ffff                	0xffff
80002dd8:	ee7c                	fsw	fa5,92(a2)
80002dda:	ffff                	0xffff
80002ddc:	ee7c                	fsw	fa5,92(a2)
80002dde:	ffff                	0xffff
80002de0:	ee7c                	fsw	fa5,92(a2)
80002de2:	ffff                	0xffff
80002de4:	ee7c                	fsw	fa5,92(a2)
80002de6:	ffff                	0xffff
80002de8:	f018                	fsw	fa4,32(s0)
80002dea:	ffff                	0xffff
80002dec:	f018                	fsw	fa4,32(s0)
80002dee:	ffff                	0xffff
80002df0:	f018                	fsw	fa4,32(s0)
80002df2:	ffff                	0xffff
80002df4:	f018                	fsw	fa4,32(s0)
80002df6:	ffff                	0xffff
80002df8:	f018                	fsw	fa4,32(s0)
80002dfa:	ffff                	0xffff
80002dfc:	f018                	fsw	fa4,32(s0)
80002dfe:	ffff                	0xffff
80002e00:	f018                	fsw	fa4,32(s0)
80002e02:	ffff                	0xffff
80002e04:	f018                	fsw	fa4,32(s0)
80002e06:	ffff                	0xffff
80002e08:	f018                	fsw	fa4,32(s0)
80002e0a:	ffff                	0xffff
80002e0c:	f018                	fsw	fa4,32(s0)
80002e0e:	ffff                	0xffff
80002e10:	f018                	fsw	fa4,32(s0)
80002e12:	ffff                	0xffff
80002e14:	f018                	fsw	fa4,32(s0)
80002e16:	ffff                	0xffff
80002e18:	f018                	fsw	fa4,32(s0)
80002e1a:	ffff                	0xffff
80002e1c:	f018                	fsw	fa4,32(s0)
80002e1e:	ffff                	0xffff
80002e20:	f018                	fsw	fa4,32(s0)
80002e22:	ffff                	0xffff
80002e24:	f018                	fsw	fa4,32(s0)
80002e26:	ffff                	0xffff
80002e28:	f018                	fsw	fa4,32(s0)
80002e2a:	ffff                	0xffff
80002e2c:	f018                	fsw	fa4,32(s0)
80002e2e:	ffff                	0xffff
80002e30:	f018                	fsw	fa4,32(s0)
80002e32:	ffff                	0xffff
80002e34:	f018                	fsw	fa4,32(s0)
80002e36:	ffff                	0xffff
80002e38:	f018                	fsw	fa4,32(s0)
80002e3a:	ffff                	0xffff
80002e3c:	f018                	fsw	fa4,32(s0)
80002e3e:	ffff                	0xffff
80002e40:	f018                	fsw	fa4,32(s0)
80002e42:	ffff                	0xffff
80002e44:	f018                	fsw	fa4,32(s0)
80002e46:	ffff                	0xffff
80002e48:	f018                	fsw	fa4,32(s0)
80002e4a:	ffff                	0xffff
80002e4c:	f018                	fsw	fa4,32(s0)
80002e4e:	ffff                	0xffff
80002e50:	f018                	fsw	fa4,32(s0)
80002e52:	ffff                	0xffff
80002e54:	f018                	fsw	fa4,32(s0)
80002e56:	ffff                	0xffff
80002e58:	f018                	fsw	fa4,32(s0)
80002e5a:	ffff                	0xffff
80002e5c:	f018                	fsw	fa4,32(s0)
80002e5e:	ffff                	0xffff
80002e60:	f018                	fsw	fa4,32(s0)
80002e62:	ffff                	0xffff
80002e64:	f018                	fsw	fa4,32(s0)
80002e66:	ffff                	0xffff
80002e68:	f018                	fsw	fa4,32(s0)
80002e6a:	ffff                	0xffff
80002e6c:	f018                	fsw	fa4,32(s0)
80002e6e:	ffff                	0xffff
80002e70:	f018                	fsw	fa4,32(s0)
80002e72:	ffff                	0xffff
80002e74:	f018                	fsw	fa4,32(s0)
80002e76:	ffff                	0xffff
80002e78:	f018                	fsw	fa4,32(s0)
80002e7a:	ffff                	0xffff
80002e7c:	f018                	fsw	fa4,32(s0)
80002e7e:	ffff                	0xffff
80002e80:	f018                	fsw	fa4,32(s0)
80002e82:	ffff                	0xffff
80002e84:	f018                	fsw	fa4,32(s0)
80002e86:	ffff                	0xffff
80002e88:	f018                	fsw	fa4,32(s0)
80002e8a:	ffff                	0xffff
80002e8c:	eebc                	fsw	fa5,88(a3)
80002e8e:	ffff                	0xffff
80002e90:	efbc                	fsw	fa5,88(a5)
80002e92:	ffff                	0xffff
80002e94:	f018                	fsw	fa4,32(s0)
80002e96:	ffff                	0xffff
80002e98:	f018                	fsw	fa4,32(s0)
80002e9a:	ffff                	0xffff
80002e9c:	f018                	fsw	fa4,32(s0)
80002e9e:	ffff                	0xffff
80002ea0:	f018                	fsw	fa4,32(s0)
80002ea2:	ffff                	0xffff
80002ea4:	f018                	fsw	fa4,32(s0)
80002ea6:	ffff                	0xffff
80002ea8:	f018                	fsw	fa4,32(s0)
80002eaa:	ffff                	0xffff
80002eac:	f018                	fsw	fa4,32(s0)
80002eae:	ffff                	0xffff
80002eb0:	f008                	fsw	fa0,32(s0)
80002eb2:	ffff                	0xffff
80002eb4:	f018                	fsw	fa4,32(s0)
80002eb6:	ffff                	0xffff
80002eb8:	f018                	fsw	fa4,32(s0)
80002eba:	ffff                	0xffff
80002ebc:	eed8                	fsw	fa4,28(a3)
80002ebe:	ffff                	0xffff
80002ec0:	eee4                	fsw	fs1,92(a3)
80002ec2:	ffff                	0xffff
80002ec4:	f018                	fsw	fa4,32(s0)
80002ec6:	ffff                	0xffff
80002ec8:	f018                	fsw	fa4,32(s0)
80002eca:	ffff                	0xffff
80002ecc:	ef0c                	fsw	fa1,24(a4)
80002ece:	ffff                	0xffff
80002ed0:	f018                	fsw	fa4,32(s0)
80002ed2:	ffff                	0xffff
80002ed4:	efb0                	fsw	fa2,88(a5)
80002ed6:	ffff                	0xffff
80002ed8:	f018                	fsw	fa4,32(s0)
80002eda:	ffff                	0xffff
80002edc:	f018                	fsw	fa4,32(s0)
80002ede:	ffff                	0xffff
80002ee0:	edf4                	fsw	fa3,92(a1)
80002ee2:	ffff                	0xffff
80002ee4:	f198                	fsw	fa4,32(a1)
80002ee6:	ffff                	0xffff
80002ee8:	f3bc                	fsw	fa5,96(a5)
80002eea:	ffff                	0xffff
80002eec:	f1d8                	fsw	fa4,36(a1)
80002eee:	ffff                	0xffff
80002ef0:	f3bc                	fsw	fa5,96(a5)
80002ef2:	ffff                	0xffff
80002ef4:	f3bc                	fsw	fa5,96(a5)
80002ef6:	ffff                	0xffff
80002ef8:	f3bc                	fsw	fa5,96(a5)
80002efa:	ffff                	0xffff
80002efc:	f3bc                	fsw	fa5,96(a5)
80002efe:	ffff                	0xffff
80002f00:	f1ec                	fsw	fa1,100(a1)
80002f02:	ffff                	0xffff
80002f04:	f3bc                	fsw	fa5,96(a5)
80002f06:	ffff                	0xffff
80002f08:	f3bc                	fsw	fa5,96(a5)
80002f0a:	ffff                	0xffff
80002f0c:	f210                	fsw	fa2,32(a2)
80002f0e:	ffff                	0xffff
80002f10:	f190                	fsw	fa2,32(a1)
80002f12:	ffff                	0xffff
80002f14:	f3bc                	fsw	fa5,96(a5)
80002f16:	ffff                	0xffff
80002f18:	f220                	fsw	fs0,96(a2)
80002f1a:	ffff                	0xffff
80002f1c:	f230                	fsw	fa2,96(a2)
80002f1e:	ffff                	0xffff
80002f20:	f230                	fsw	fa2,96(a2)
80002f22:	ffff                	0xffff
80002f24:	f230                	fsw	fa2,96(a2)
80002f26:	ffff                	0xffff
80002f28:	f230                	fsw	fa2,96(a2)
80002f2a:	ffff                	0xffff
80002f2c:	f230                	fsw	fa2,96(a2)
80002f2e:	ffff                	0xffff
80002f30:	f230                	fsw	fa2,96(a2)
80002f32:	ffff                	0xffff
80002f34:	f230                	fsw	fa2,96(a2)
80002f36:	ffff                	0xffff
80002f38:	f230                	fsw	fa2,96(a2)
80002f3a:	ffff                	0xffff
80002f3c:	f230                	fsw	fa2,96(a2)
80002f3e:	ffff                	0xffff
80002f40:	f3bc                	fsw	fa5,96(a5)
80002f42:	ffff                	0xffff
80002f44:	f3bc                	fsw	fa5,96(a5)
80002f46:	ffff                	0xffff
80002f48:	f3bc                	fsw	fa5,96(a5)
80002f4a:	ffff                	0xffff
80002f4c:	f3bc                	fsw	fa5,96(a5)
80002f4e:	ffff                	0xffff
80002f50:	f3bc                	fsw	fa5,96(a5)
80002f52:	ffff                	0xffff
80002f54:	f3bc                	fsw	fa5,96(a5)
80002f56:	ffff                	0xffff
80002f58:	f3bc                	fsw	fa5,96(a5)
80002f5a:	ffff                	0xffff
80002f5c:	f3bc                	fsw	fa5,96(a5)
80002f5e:	ffff                	0xffff
80002f60:	f3bc                	fsw	fa5,96(a5)
80002f62:	ffff                	0xffff
80002f64:	f3bc                	fsw	fa5,96(a5)
80002f66:	ffff                	0xffff
80002f68:	f3bc                	fsw	fa5,96(a5)
80002f6a:	ffff                	0xffff
80002f6c:	f3bc                	fsw	fa5,96(a5)
80002f6e:	ffff                	0xffff
80002f70:	f3bc                	fsw	fa5,96(a5)
80002f72:	ffff                	0xffff
80002f74:	f3bc                	fsw	fa5,96(a5)
80002f76:	ffff                	0xffff
80002f78:	f3bc                	fsw	fa5,96(a5)
80002f7a:	ffff                	0xffff
80002f7c:	f3bc                	fsw	fa5,96(a5)
80002f7e:	ffff                	0xffff
80002f80:	f3bc                	fsw	fa5,96(a5)
80002f82:	ffff                	0xffff
80002f84:	f3bc                	fsw	fa5,96(a5)
80002f86:	ffff                	0xffff
80002f88:	f3bc                	fsw	fa5,96(a5)
80002f8a:	ffff                	0xffff
80002f8c:	f3bc                	fsw	fa5,96(a5)
80002f8e:	ffff                	0xffff
80002f90:	f3bc                	fsw	fa5,96(a5)
80002f92:	ffff                	0xffff
80002f94:	f3bc                	fsw	fa5,96(a5)
80002f96:	ffff                	0xffff
80002f98:	f3bc                	fsw	fa5,96(a5)
80002f9a:	ffff                	0xffff
80002f9c:	f3bc                	fsw	fa5,96(a5)
80002f9e:	ffff                	0xffff
80002fa0:	f3bc                	fsw	fa5,96(a5)
80002fa2:	ffff                	0xffff
80002fa4:	f3bc                	fsw	fa5,96(a5)
80002fa6:	ffff                	0xffff
80002fa8:	f3bc                	fsw	fa5,96(a5)
80002faa:	ffff                	0xffff
80002fac:	f3bc                	fsw	fa5,96(a5)
80002fae:	ffff                	0xffff
80002fb0:	f3bc                	fsw	fa5,96(a5)
80002fb2:	ffff                	0xffff
80002fb4:	f3bc                	fsw	fa5,96(a5)
80002fb6:	ffff                	0xffff
80002fb8:	f3bc                	fsw	fa5,96(a5)
80002fba:	ffff                	0xffff
80002fbc:	f3bc                	fsw	fa5,96(a5)
80002fbe:	ffff                	0xffff
80002fc0:	f3bc                	fsw	fa5,96(a5)
80002fc2:	ffff                	0xffff
80002fc4:	f3bc                	fsw	fa5,96(a5)
80002fc6:	ffff                	0xffff
80002fc8:	f3bc                	fsw	fa5,96(a5)
80002fca:	ffff                	0xffff
80002fcc:	f3bc                	fsw	fa5,96(a5)
80002fce:	ffff                	0xffff
80002fd0:	f3bc                	fsw	fa5,96(a5)
80002fd2:	ffff                	0xffff
80002fd4:	f3bc                	fsw	fa5,96(a5)
80002fd6:	ffff                	0xffff
80002fd8:	f3bc                	fsw	fa5,96(a5)
80002fda:	ffff                	0xffff
80002fdc:	f3bc                	fsw	fa5,96(a5)
80002fde:	ffff                	0xffff
80002fe0:	f3bc                	fsw	fa5,96(a5)
80002fe2:	ffff                	0xffff
80002fe4:	f270                	fsw	fa2,100(a2)
80002fe6:	ffff                	0xffff
80002fe8:	f370                	fsw	fa2,100(a4)
80002fea:	ffff                	0xffff
80002fec:	f3bc                	fsw	fa5,96(a5)
80002fee:	ffff                	0xffff
80002ff0:	f3bc                	fsw	fa5,96(a5)
80002ff2:	ffff                	0xffff
80002ff4:	f3bc                	fsw	fa5,96(a5)
80002ff6:	ffff                	0xffff
80002ff8:	f3bc                	fsw	fa5,96(a5)
80002ffa:	ffff                	0xffff
80002ffc:	f3bc                	fsw	fa5,96(a5)
80002ffe:	ffff                	0xffff
80003000:	f3bc                	fsw	fa5,96(a5)
80003002:	ffff                	0xffff
80003004:	f3bc                	fsw	fa5,96(a5)
80003006:	ffff                	0xffff
80003008:	f3ac                	fsw	fa1,96(a5)
8000300a:	ffff                	0xffff
8000300c:	f3bc                	fsw	fa5,96(a5)
8000300e:	ffff                	0xffff
80003010:	f3bc                	fsw	fa5,96(a5)
80003012:	ffff                	0xffff
80003014:	f28c                	fsw	fa1,32(a3)
80003016:	ffff                	0xffff
80003018:	f298                	fsw	fa4,32(a3)
8000301a:	ffff                	0xffff
8000301c:	f3bc                	fsw	fa5,96(a5)
8000301e:	ffff                	0xffff
80003020:	f3bc                	fsw	fa5,96(a5)
80003022:	ffff                	0xffff
80003024:	f2c0                	fsw	fs0,36(a3)
80003026:	ffff                	0xffff
80003028:	f3bc                	fsw	fa5,96(a5)
8000302a:	ffff                	0xffff
8000302c:	f364                	fsw	fs1,100(a4)
8000302e:	ffff                	0xffff
80003030:	f3bc                	fsw	fa5,96(a5)
80003032:	ffff                	0xffff
80003034:	f3bc                	fsw	fa5,96(a5)
80003036:	ffff                	0xffff
80003038:	f1a4                	fsw	fs1,96(a1)
8000303a:	ffff                	0xffff

8000303c <__clz_tab>:
8000303c:	0100                	addi	s0,sp,128
8000303e:	0202                	slli	tp,tp,0x0
80003040:	03030303          	lb	t1,48(t1)
80003044:	0404                	addi	s1,sp,512
80003046:	0404                	addi	s1,sp,512
80003048:	0404                	addi	s1,sp,512
8000304a:	0404                	addi	s1,sp,512
8000304c:	0505                	addi	a0,a0,1
8000304e:	0505                	addi	a0,a0,1
80003050:	0505                	addi	a0,a0,1
80003052:	0505                	addi	a0,a0,1
80003054:	0505                	addi	a0,a0,1
80003056:	0505                	addi	a0,a0,1
80003058:	0505                	addi	a0,a0,1
8000305a:	0505                	addi	a0,a0,1
8000305c:	0606                	slli	a2,a2,0x1
8000305e:	0606                	slli	a2,a2,0x1
80003060:	0606                	slli	a2,a2,0x1
80003062:	0606                	slli	a2,a2,0x1
80003064:	0606                	slli	a2,a2,0x1
80003066:	0606                	slli	a2,a2,0x1
80003068:	0606                	slli	a2,a2,0x1
8000306a:	0606                	slli	a2,a2,0x1
8000306c:	0606                	slli	a2,a2,0x1
8000306e:	0606                	slli	a2,a2,0x1
80003070:	0606                	slli	a2,a2,0x1
80003072:	0606                	slli	a2,a2,0x1
80003074:	0606                	slli	a2,a2,0x1
80003076:	0606                	slli	a2,a2,0x1
80003078:	0606                	slli	a2,a2,0x1
8000307a:	0606                	slli	a2,a2,0x1
8000307c:	07070707          	0x7070707
80003080:	07070707          	0x7070707
80003084:	07070707          	0x7070707
80003088:	07070707          	0x7070707
8000308c:	07070707          	0x7070707
80003090:	07070707          	0x7070707
80003094:	07070707          	0x7070707
80003098:	07070707          	0x7070707
8000309c:	07070707          	0x7070707
800030a0:	07070707          	0x7070707
800030a4:	07070707          	0x7070707
800030a8:	07070707          	0x7070707
800030ac:	07070707          	0x7070707
800030b0:	07070707          	0x7070707
800030b4:	07070707          	0x7070707
800030b8:	07070707          	0x7070707
800030bc:	0808                	addi	a0,sp,16
800030be:	0808                	addi	a0,sp,16
800030c0:	0808                	addi	a0,sp,16
800030c2:	0808                	addi	a0,sp,16
800030c4:	0808                	addi	a0,sp,16
800030c6:	0808                	addi	a0,sp,16
800030c8:	0808                	addi	a0,sp,16
800030ca:	0808                	addi	a0,sp,16
800030cc:	0808                	addi	a0,sp,16
800030ce:	0808                	addi	a0,sp,16
800030d0:	0808                	addi	a0,sp,16
800030d2:	0808                	addi	a0,sp,16
800030d4:	0808                	addi	a0,sp,16
800030d6:	0808                	addi	a0,sp,16
800030d8:	0808                	addi	a0,sp,16
800030da:	0808                	addi	a0,sp,16
800030dc:	0808                	addi	a0,sp,16
800030de:	0808                	addi	a0,sp,16
800030e0:	0808                	addi	a0,sp,16
800030e2:	0808                	addi	a0,sp,16
800030e4:	0808                	addi	a0,sp,16
800030e6:	0808                	addi	a0,sp,16
800030e8:	0808                	addi	a0,sp,16
800030ea:	0808                	addi	a0,sp,16
800030ec:	0808                	addi	a0,sp,16
800030ee:	0808                	addi	a0,sp,16
800030f0:	0808                	addi	a0,sp,16
800030f2:	0808                	addi	a0,sp,16
800030f4:	0808                	addi	a0,sp,16
800030f6:	0808                	addi	a0,sp,16
800030f8:	0808                	addi	a0,sp,16
800030fa:	0808                	addi	a0,sp,16
800030fc:	0808                	addi	a0,sp,16
800030fe:	0808                	addi	a0,sp,16
80003100:	0808                	addi	a0,sp,16
80003102:	0808                	addi	a0,sp,16
80003104:	0808                	addi	a0,sp,16
80003106:	0808                	addi	a0,sp,16
80003108:	0808                	addi	a0,sp,16
8000310a:	0808                	addi	a0,sp,16
8000310c:	0808                	addi	a0,sp,16
8000310e:	0808                	addi	a0,sp,16
80003110:	0808                	addi	a0,sp,16
80003112:	0808                	addi	a0,sp,16
80003114:	0808                	addi	a0,sp,16
80003116:	0808                	addi	a0,sp,16
80003118:	0808                	addi	a0,sp,16
8000311a:	0808                	addi	a0,sp,16
8000311c:	0808                	addi	a0,sp,16
8000311e:	0808                	addi	a0,sp,16
80003120:	0808                	addi	a0,sp,16
80003122:	0808                	addi	a0,sp,16
80003124:	0808                	addi	a0,sp,16
80003126:	0808                	addi	a0,sp,16
80003128:	0808                	addi	a0,sp,16
8000312a:	0808                	addi	a0,sp,16
8000312c:	0808                	addi	a0,sp,16
8000312e:	0808                	addi	a0,sp,16
80003130:	0808                	addi	a0,sp,16
80003132:	0808                	addi	a0,sp,16
80003134:	0808                	addi	a0,sp,16
80003136:	0808                	addi	a0,sp,16
80003138:	0808                	addi	a0,sp,16
8000313a:	0808                	addi	a0,sp,16

Disassembly of section .rodata.str1.4:

8000313c <.rodata.str1.4>:
8000313c:	4141                	li	sp,16
8000313e:	0a41                	addi	s4,s4,16
80003140:	0000                	unimp
80003142:	0000                	unimp
80003144:	4242                	lw	tp,16(sp)
80003146:	0a42                	slli	s4,s4,0x10
80003148:	0000                	unimp
8000314a:	0000                	unimp
8000314c:	636d                	lui	t1,0x1b
8000314e:	6379                	lui	t1,0x1e
80003150:	656c                	flw	fa1,76(a0)
80003152:	0000                	unimp
80003154:	696d                	lui	s2,0x1b
80003156:	736e                	flw	ft6,248(sp)
80003158:	7274                	flw	fa3,100(a2)
8000315a:	7465                	lui	s0,0xffff9
8000315c:	0000                	unimp
8000315e:	0000                	unimp
80003160:	6d49                	lui	s10,0x12
80003162:	6c70                	flw	fa2,92(s0)
80003164:	6d65                	lui	s10,0x19
80003166:	6e65                	lui	t3,0x19
80003168:	2074                	fld	fa3,192(s0)
8000316a:	616d                	addi	sp,sp,240
8000316c:	6e69                	lui	t3,0x1a
8000316e:	2928                	fld	fa0,80(a0)
80003170:	202c                	fld	fa1,64(s0)
80003172:	6f66                	flw	ft10,88(sp)
80003174:	000a216f          	jal	sp,800a5174 <__global_pointer$+0xa17ac>
80003178:	6e28                	flw	fa0,88(a2)
8000317a:	6c75                	lui	s8,0x1d
8000317c:	296c                	fld	fa1,208(a0)
8000317e:	0000                	unimp
80003180:	7325                	lui	t1,0xfffe9
80003182:	3d20                	fld	fs0,120(a0)
80003184:	2520                	fld	fs0,72(a0)
80003186:	0a64                	addi	s1,sp,284
80003188:	0000                	unimp
8000318a:	0000                	unimp

Disassembly of section .eh_frame:

8000318c <__global_pointer$-0x83c>:
8000318c:	0010                	addi	a2,sp,0
8000318e:	0000                	unimp
80003190:	0000                	unimp
80003192:	0000                	unimp
80003194:	00527a03          	0x527a03
80003198:	7c01                	lui	s8,0xfffe0
8000319a:	0101                	addi	sp,sp,0
8000319c:	00020c1b          	0x20c1b
800031a0:	0010                	addi	a2,sp,0
800031a2:	0000                	unimp
800031a4:	0018                	addi	a4,sp,0
800031a6:	0000                	unimp
800031a8:	f2b8                	fsw	fa4,96(a3)
800031aa:	ffff                	0xffff
800031ac:	0474                	addi	a3,sp,524
800031ae:	0000                	unimp
800031b0:	0000                	unimp
800031b2:	0000                	unimp
800031b4:	0010                	addi	a2,sp,0
800031b6:	0000                	unimp
800031b8:	002c                	addi	a1,sp,8
800031ba:	0000                	unimp
800031bc:	f718                	fsw	fa4,40(a4)
800031be:	ffff                	0xffff
800031c0:	0428                	addi	a0,sp,520
800031c2:	0000                	unimp
800031c4:	0000                	unimp
800031c6:	0000                	unimp
