
/home/lenovo/riscv-compliance/work//I-SB-01.elf:     file format elf32-littleriscv


Disassembly of section .text.init:

80000000 <_start>:
80000000:	04c0006f          	j	8000004c <reset_vector>

80000004 <trap_vector>:
80000004:	34202f73          	csrr	t5,mcause
80000008:	00800f93          	li	t6,8
8000000c:	03ff0a63          	beq	t5,t6,80000040 <write_tohost>
80000010:	00900f93          	li	t6,9
80000014:	03ff0663          	beq	t5,t6,80000040 <write_tohost>
80000018:	00b00f93          	li	t6,11
8000001c:	03ff0263          	beq	t5,t6,80000040 <write_tohost>
80000020:	80000f17          	auipc	t5,0x80000
80000024:	fe0f0f13          	addi	t5,t5,-32 # 0 <_start-0x80000000>
80000028:	000f0463          	beqz	t5,80000030 <trap_vector+0x2c>
8000002c:	000f0067          	jr	t5
80000030:	34202f73          	csrr	t5,mcause
80000034:	000f5463          	bgez	t5,8000003c <handle_exception>
80000038:	0040006f          	j	8000003c <handle_exception>

8000003c <handle_exception>:
8000003c:	5391e193          	ori	gp,gp,1337

80000040 <write_tohost>:
80000040:	00001f17          	auipc	t5,0x1
80000044:	fc3f2023          	sw	gp,-64(t5) # 80001000 <tohost>
80000048:	ff9ff06f          	j	80000040 <write_tohost>

8000004c <reset_vector>:
8000004c:	f1402573          	csrr	a0,mhartid
80000050:	00051063          	bnez	a0,80000050 <reset_vector+0x4>
80000054:	00000297          	auipc	t0,0x0
80000058:	01028293          	addi	t0,t0,16 # 80000064 <reset_vector+0x18>
8000005c:	30529073          	csrw	mtvec,t0
80000060:	18005073          	csrwi	satp,0
80000064:	00000297          	auipc	t0,0x0
80000068:	01c28293          	addi	t0,t0,28 # 80000080 <reset_vector+0x34>
8000006c:	30529073          	csrw	mtvec,t0
80000070:	fff00293          	li	t0,-1
80000074:	3b029073          	csrw	pmpaddr0,t0
80000078:	01f00293          	li	t0,31
8000007c:	3a029073          	csrw	pmpcfg0,t0
80000080:	00000297          	auipc	t0,0x0
80000084:	01828293          	addi	t0,t0,24 # 80000098 <reset_vector+0x4c>
80000088:	30529073          	csrw	mtvec,t0
8000008c:	30205073          	csrwi	medeleg,0
80000090:	30305073          	csrwi	mideleg,0
80000094:	30405073          	csrwi	mie,0
80000098:	00000193          	li	gp,0
8000009c:	00000297          	auipc	t0,0x0
800000a0:	f6828293          	addi	t0,t0,-152 # 80000004 <trap_vector>
800000a4:	30529073          	csrw	mtvec,t0
800000a8:	00100513          	li	a0,1
800000ac:	01f51513          	slli	a0,a0,0x1f
800000b0:	00054863          	bltz	a0,800000c0 <reset_vector+0x74>
800000b4:	0ff0000f          	fence
800000b8:	00100193          	li	gp,1
800000bc:	00000073          	ecall
800000c0:	80000297          	auipc	t0,0x80000
800000c4:	f4028293          	addi	t0,t0,-192 # 0 <_start-0x80000000>
800000c8:	00028e63          	beqz	t0,800000e4 <reset_vector+0x98>
800000cc:	10529073          	csrw	stvec,t0
800000d0:	0000b2b7          	lui	t0,0xb
800000d4:	10928293          	addi	t0,t0,265 # b109 <_start-0x7fff4ef7>
800000d8:	30229073          	csrw	medeleg,t0
800000dc:	30202373          	csrr	t1,medeleg
800000e0:	f4629ee3          	bne	t0,t1,8000003c <handle_exception>
800000e4:	30005073          	csrwi	mstatus,0
800000e8:	00002537          	lui	a0,0x2
800000ec:	80050513          	addi	a0,a0,-2048 # 1800 <_start-0x7fffe800>
800000f0:	30052073          	csrs	mstatus,a0
800000f4:	00000297          	auipc	t0,0x0
800000f8:	01428293          	addi	t0,t0,20 # 80000108 <begin_testcode>
800000fc:	34129073          	csrw	mepc,t0
80000100:	f1402573          	csrr	a0,mhartid
80000104:	30200073          	mret

80000108 <begin_testcode>:
80000108:	00002097          	auipc	ra,0x2
8000010c:	f0808093          	addi	ra,ra,-248 # 80002010 <begin_signature>
80000110:	aaaacfb7          	lui	t6,0xaaaac
80000114:	bbbf8f93          	addi	t6,t6,-1093 # aaaabbbb <_end+0x2aaa9b6b>
80000118:	01f0a023          	sw	t6,0(ra)
8000011c:	11f1f137          	lui	sp,0x11f1f
80000120:	22210113          	addi	sp,sp,546 # 11f1f222 <_start-0x6e0e0dde>
80000124:	00208023          	sb	sp,0(ra)
80000128:	00002297          	auipc	t0,0x2
8000012c:	eed28293          	addi	t0,t0,-275 # 80002015 <test_A2_res+0x1>
80000130:	fe02afa3          	sw	zero,-1(t0)
80000134:	f3334cb7          	lui	s9,0xf3334
80000138:	4f4c8c93          	addi	s9,s9,1268 # f33344f4 <_end+0x733324a4>
8000013c:	ff928fa3          	sb	s9,-1(t0)
80000140:	00002417          	auipc	s0,0x2
80000144:	ed740413          	addi	s0,s0,-297 # 80002017 <test_A2_res+0x3>
80000148:	000420a3          	sw	zero,1(s0)
8000014c:	55f5ffb7          	lui	t6,0x55f5f
80000150:	666f8f93          	addi	t6,t6,1638 # 55f5f666 <_start-0x2a0a099a>
80000154:	01f400a3          	sb	t6,1(s0)
80000158:	00002597          	auipc	a1,0x2
8000015c:	6c458593          	addi	a1,a1,1732 # 8000281c <_end+0x7cc>
80000160:	8005a023          	sw	zero,-2048(a1)
80000164:	f7779637          	lui	a2,0xf7779
80000168:	8f860613          	addi	a2,a2,-1800 # f77788f8 <_end+0x777768a8>
8000016c:	80c58023          	sb	a2,-2048(a1)
80000170:	00001717          	auipc	a4,0x1
80000174:	6b170713          	addi	a4,a4,1713 # 80001821 <fromhost+0x721>
80000178:	7e072fa3          	sw	zero,2047(a4)
8000017c:	990917b7          	lui	a5,0x99091
80000180:	aaa78793          	addi	a5,a5,-1366 # 99090aaa <_end+0x1908ea5a>
80000184:	7ef70fa3          	sb	a5,2047(a4)
80000188:	00002897          	auipc	a7,0x2
8000018c:	ea088893          	addi	a7,a7,-352 # 80002028 <test_B_res>
80000190:	11111937          	lui	s2,0x11111
80000194:	10c90913          	addi	s2,s2,268 # 1111110c <_start-0x6eeeeef4>
80000198:	222229b7          	lui	s3,0x22222
8000019c:	2cc98993          	addi	s3,s3,716 # 222222cc <_start-0x5ddddd34>
800001a0:	33333a37          	lui	s4,0x33333
800001a4:	3bba0a13          	addi	s4,s4,955 # 333333bb <_start-0x4ccccc45>
800001a8:	44444ab7          	lui	s5,0x44444
800001ac:	40ba8a93          	addi	s5,s5,1035 # 4444440b <_start-0x3bbbbbf5>
800001b0:	55555b37          	lui	s6,0x55555
800001b4:	5eeb0b13          	addi	s6,s6,1518 # 555555ee <_start-0x2aaaaa12>
800001b8:	66666bb7          	lui	s7,0x66666
800001bc:	60eb8b93          	addi	s7,s7,1550 # 6666660e <_start-0x199999f2>
800001c0:	77777c37          	lui	s8,0x77777
800001c4:	70dc0c13          	addi	s8,s8,1805 # 7777770d <_start-0x88888f3>
800001c8:	88889cb7          	lui	s9,0x88889
800001cc:	8ddc8c93          	addi	s9,s9,-1827 # 888888dd <_end+0x888688d>
800001d0:	9999ad37          	lui	s10,0x9999a
800001d4:	9f0d0d13          	addi	s10,s10,-1552 # 999999f0 <_end+0x199979a0>
800001d8:	aaaabdb7          	lui	s11,0xaaaab
800001dc:	a00d8d93          	addi	s11,s11,-1536 # aaaaaa00 <_end+0x2aaa89b0>
800001e0:	bbbbce37          	lui	t3,0xbbbbc
800001e4:	bffe0e13          	addi	t3,t3,-1025 # bbbbbbff <_end+0x3bbb9baf>
800001e8:	ccccdeb7          	lui	t4,0xccccd
800001ec:	c0fe8e93          	addi	t4,t4,-1009 # cccccc0f <_end+0x4cccabbf>
800001f0:	ff288e23          	sb	s2,-4(a7)
800001f4:	ff388ea3          	sb	s3,-3(a7)
800001f8:	ff488f23          	sb	s4,-2(a7)
800001fc:	ff588fa3          	sb	s5,-1(a7)
80000200:	01688023          	sb	s6,0(a7)
80000204:	017880a3          	sb	s7,1(a7)
80000208:	01888123          	sb	s8,2(a7)
8000020c:	019881a3          	sb	s9,3(a7)
80000210:	01a88223          	sb	s10,4(a7)
80000214:	01b882a3          	sb	s11,5(a7)
80000218:	01c88323          	sb	t3,6(a7)
8000021c:	01d883a3          	sb	t4,7(a7)
80000220:	00002b17          	auipc	s6,0x2
80000224:	e10b0b13          	addi	s6,s6,-496 # 80002030 <test_C_res>
80000228:	876540b7          	lui	ra,0x87654
8000022c:	32108093          	addi	ra,ra,801 # 87654321 <_end+0x76522d1>
80000230:	001b2023          	sw	ra,0(s6)
80000234:	12345037          	lui	zero,0x12345
80000238:	67800013          	li	zero,1656
8000023c:	000b0023          	sb	zero,0(s6)
80000240:	00002a97          	auipc	s5,0x2
80000244:	dc0a8a93          	addi	s5,s5,-576 # 80002000 <test_D1_data>
80000248:	000aa083          	lw	ra,0(s5)
8000024c:	0000a023          	sw	zero,0(ra)
80000250:	112239b7          	lui	s3,0x11223
80000254:	34498993          	addi	s3,s3,836 # 11223344 <_start-0x6eddccbc>
80000258:	000aab83          	lw	s7,0(s5)
8000025c:	013b8023          	sb	s3,0(s7)
80000260:	00002b97          	auipc	s7,0x2
80000264:	da4b8b93          	addi	s7,s7,-604 # 80002004 <test_D2_data>
80000268:	00002c17          	auipc	s8,0x2
8000026c:	dd0c0c13          	addi	s8,s8,-560 # 80002038 <test_D2_res>
80000270:	000c2023          	sw	zero,0(s8)
80000274:	000bac83          	lw	s9,0(s7)
80000278:	019c0023          	sb	s9,0(s8)
8000027c:	00002d17          	auipc	s10,0x2
80000280:	dc0d0d13          	addi	s10,s10,-576 # 8000203c <test_E1_res>
80000284:	000d2023          	sw	zero,0(s10)
80000288:	76543cb7          	lui	s9,0x76543
8000028c:	210c8c93          	addi	s9,s9,528 # 76543210 <_start-0x9abcdf0>
80000290:	019d0023          	sb	s9,0(s10)
80000294:	00000c93          	li	s9,0
80000298:	00002e17          	auipc	t3,0x2
8000029c:	da8e0e13          	addi	t3,t3,-600 # 80002040 <test_E2_res>
800002a0:	000e2023          	sw	zero,0(t3)
800002a4:	89abddb7          	lui	s11,0x89abd
800002a8:	defd8d93          	addi	s11,s11,-529 # 89abcdef <_end+0x9abad9f>
800002ac:	01be0023          	sb	s11,0(t3)
800002b0:	ffce0e13          	addi	t3,t3,-4
800002b4:	00002e97          	auipc	t4,0x2
800002b8:	d90e8e93          	addi	t4,t4,-624 # 80002044 <test_F_res>
800002bc:	000ea023          	sw	zero,0(t4)
800002c0:	000ea223          	sw	zero,4(t4)
800002c4:	14726db7          	lui	s11,0x14726
800002c8:	836d8d93          	addi	s11,s11,-1994 # 14725836 <_start-0x6b8da7ca>
800002cc:	01be8023          	sb	s11,0(t4)
800002d0:	000eaf03          	lw	t5,0(t4)
800002d4:	01ee8223          	sb	t5,4(t4)
800002d8:	00002097          	auipc	ra,0x2
800002dc:	d7408093          	addi	ra,ra,-652 # 8000204c <test_G_res>
800002e0:	0000a023          	sw	zero,0(ra)
800002e4:	96385137          	lui	sp,0x96385
800002e8:	20110113          	addi	sp,sp,513 # 96385201 <_end+0x163831b1>
800002ec:	258151b7          	lui	gp,0x25815
800002f0:	96318193          	addi	gp,gp,-1693 # 25814963 <_start-0x5a7eb69d>
800002f4:	00208023          	sb	sp,0(ra)
800002f8:	00308023          	sb	gp,0(ra)
800002fc:	0ff0000f          	fence
80000300:	00100193          	li	gp,1
80000304:	00000073          	ecall

80000308 <end_testcode>:
80000308:	c0001073          	unimp
	...

Disassembly of section .tohost:

80001000 <tohost>:
	...

80001100 <fromhost>:
	...

Disassembly of section .data:

80002000 <test_D1_data>:
80002000:	2034                	fld	fa3,64(s0)
80002002:	8000                	0x8000

80002004 <test_D2_data>:
80002004:	def0                	sw	a2,124(a3)
80002006:	9abc                	0x9abc
	...

80002010 <begin_signature>:
80002010:	ffff                	0xffff
80002012:	ffff                	0xffff

80002014 <test_A2_res>:
80002014:	ffff                	0xffff
80002016:	ffff                	0xffff

80002018 <test_A3_res>:
80002018:	ffff                	0xffff
8000201a:	ffff                	0xffff

8000201c <test_A4_res>:
8000201c:	ffff                	0xffff
8000201e:	ffff                	0xffff

80002020 <test_A5_res>:
80002020:	ffff                	0xffff
80002022:	ffff                	0xffff
80002024:	ffff                	0xffff
80002026:	ffff                	0xffff

80002028 <test_B_res>:
80002028:	ffff                	0xffff
8000202a:	ffff                	0xffff
8000202c:	ffff                	0xffff
8000202e:	ffff                	0xffff

80002030 <test_C_res>:
80002030:	ffff                	0xffff
80002032:	ffff                	0xffff

80002034 <test_D1_res>:
80002034:	ffff                	0xffff
80002036:	ffff                	0xffff

80002038 <test_D2_res>:
80002038:	ffff                	0xffff
8000203a:	ffff                	0xffff

8000203c <test_E1_res>:
8000203c:	ffff                	0xffff
8000203e:	ffff                	0xffff

80002040 <test_E2_res>:
80002040:	ffff                	0xffff
80002042:	ffff                	0xffff

80002044 <test_F_res>:
80002044:	ffff                	0xffff
80002046:	ffff                	0xffff
80002048:	ffff                	0xffff
8000204a:	ffff                	0xffff

8000204c <test_G_res>:
8000204c:	ffff                	0xffff
8000204e:	ffff                	0xffff
