
/home/lenovo/riscv-compliance/work//I-SUB-01.elf:     file format elf32-littleriscv


Disassembly of section .text.init:

80000000 <_start>:
80000000:	04c0006f          	j	8000004c <reset_vector>

80000004 <trap_vector>:
80000004:	34202f73          	csrr	t5,mcause
80000008:	00800f93          	li	t6,8
8000000c:	03ff0a63          	beq	t5,t6,80000040 <write_tohost>
80000010:	00900f93          	li	t6,9
80000014:	03ff0663          	beq	t5,t6,80000040 <write_tohost>
80000018:	00b00f93          	li	t6,11
8000001c:	03ff0263          	beq	t5,t6,80000040 <write_tohost>
80000020:	80000f17          	auipc	t5,0x80000
80000024:	fe0f0f13          	addi	t5,t5,-32 # 0 <_start-0x80000000>
80000028:	000f0463          	beqz	t5,80000030 <trap_vector+0x2c>
8000002c:	000f0067          	jr	t5
80000030:	34202f73          	csrr	t5,mcause
80000034:	000f5463          	bgez	t5,8000003c <handle_exception>
80000038:	0040006f          	j	8000003c <handle_exception>

8000003c <handle_exception>:
8000003c:	5391e193          	ori	gp,gp,1337

80000040 <write_tohost>:
80000040:	00001f17          	auipc	t5,0x1
80000044:	fc3f2023          	sw	gp,-64(t5) # 80001000 <tohost>
80000048:	ff9ff06f          	j	80000040 <write_tohost>

8000004c <reset_vector>:
8000004c:	f1402573          	csrr	a0,mhartid
80000050:	00051063          	bnez	a0,80000050 <reset_vector+0x4>
80000054:	00000297          	auipc	t0,0x0
80000058:	01028293          	addi	t0,t0,16 # 80000064 <reset_vector+0x18>
8000005c:	30529073          	csrw	mtvec,t0
80000060:	18005073          	csrwi	satp,0
80000064:	00000297          	auipc	t0,0x0
80000068:	01c28293          	addi	t0,t0,28 # 80000080 <reset_vector+0x34>
8000006c:	30529073          	csrw	mtvec,t0
80000070:	fff00293          	li	t0,-1
80000074:	3b029073          	csrw	pmpaddr0,t0
80000078:	01f00293          	li	t0,31
8000007c:	3a029073          	csrw	pmpcfg0,t0
80000080:	00000297          	auipc	t0,0x0
80000084:	01828293          	addi	t0,t0,24 # 80000098 <reset_vector+0x4c>
80000088:	30529073          	csrw	mtvec,t0
8000008c:	30205073          	csrwi	medeleg,0
80000090:	30305073          	csrwi	mideleg,0
80000094:	30405073          	csrwi	mie,0
80000098:	00000193          	li	gp,0
8000009c:	00000297          	auipc	t0,0x0
800000a0:	f6828293          	addi	t0,t0,-152 # 80000004 <trap_vector>
800000a4:	30529073          	csrw	mtvec,t0
800000a8:	00100513          	li	a0,1
800000ac:	01f51513          	slli	a0,a0,0x1f
800000b0:	00054863          	bltz	a0,800000c0 <reset_vector+0x74>
800000b4:	0ff0000f          	fence
800000b8:	00100193          	li	gp,1
800000bc:	00000073          	ecall
800000c0:	80000297          	auipc	t0,0x80000
800000c4:	f4028293          	addi	t0,t0,-192 # 0 <_start-0x80000000>
800000c8:	00028e63          	beqz	t0,800000e4 <reset_vector+0x98>
800000cc:	10529073          	csrw	stvec,t0
800000d0:	0000b2b7          	lui	t0,0xb
800000d4:	10928293          	addi	t0,t0,265 # b109 <_start-0x7fff4ef7>
800000d8:	30229073          	csrw	medeleg,t0
800000dc:	30202373          	csrr	t1,medeleg
800000e0:	f4629ee3          	bne	t0,t1,8000003c <handle_exception>
800000e4:	30005073          	csrwi	mstatus,0
800000e8:	00002537          	lui	a0,0x2
800000ec:	80050513          	addi	a0,a0,-2048 # 1800 <_start-0x7fffe800>
800000f0:	30052073          	csrs	mstatus,a0
800000f4:	00000297          	auipc	t0,0x0
800000f8:	01428293          	addi	t0,t0,20 # 80000108 <begin_testcode>
800000fc:	34129073          	csrw	mepc,t0
80000100:	f1402573          	csrr	a0,mhartid
80000104:	30200073          	mret

80000108 <begin_testcode>:
80000108:	00002097          	auipc	ra,0x2
8000010c:	ef808093          	addi	ra,ra,-264 # 80002000 <test_A1_data>
80000110:	00002117          	auipc	sp,0x2
80000114:	f2010113          	addi	sp,sp,-224 # 80002030 <begin_signature>
80000118:	0000a183          	lw	gp,0(ra)
8000011c:	00000213          	li	tp,0
80000120:	00100293          	li	t0,1
80000124:	fff00313          	li	t1,-1
80000128:	800003b7          	lui	t2,0x80000
8000012c:	fff38393          	addi	t2,t2,-1 # 7fffffff <_end+0xffffdf1f>
80000130:	80000437          	lui	s0,0x80000
80000134:	40418233          	sub	tp,gp,tp
80000138:	405182b3          	sub	t0,gp,t0
8000013c:	40618333          	sub	t1,gp,t1
80000140:	407183b3          	sub	t2,gp,t2
80000144:	40818433          	sub	s0,gp,s0
80000148:	00312023          	sw	gp,0(sp)
8000014c:	00412223          	sw	tp,4(sp)
80000150:	00512423          	sw	t0,8(sp)
80000154:	00612623          	sw	t1,12(sp)
80000158:	00712823          	sw	t2,16(sp)
8000015c:	00812a23          	sw	s0,20(sp)
80000160:	00002097          	auipc	ra,0x2
80000164:	ea408093          	addi	ra,ra,-348 # 80002004 <test_A2_data>
80000168:	00002117          	auipc	sp,0x2
8000016c:	ee010113          	addi	sp,sp,-288 # 80002048 <test_A2_res>
80000170:	0000a403          	lw	s0,0(ra)
80000174:	00000493          	li	s1,0
80000178:	00100513          	li	a0,1
8000017c:	fff00593          	li	a1,-1
80000180:	80000637          	lui	a2,0x80000
80000184:	fff60613          	addi	a2,a2,-1 # 7fffffff <_end+0xffffdf1f>
80000188:	800006b7          	lui	a3,0x80000
8000018c:	409404b3          	sub	s1,s0,s1
80000190:	40a40533          	sub	a0,s0,a0
80000194:	40b405b3          	sub	a1,s0,a1
80000198:	40c40633          	sub	a2,s0,a2
8000019c:	40d406b3          	sub	a3,s0,a3
800001a0:	00812023          	sw	s0,0(sp)
800001a4:	00912223          	sw	s1,4(sp)
800001a8:	00a12423          	sw	a0,8(sp)
800001ac:	00b12623          	sw	a1,12(sp)
800001b0:	00c12823          	sw	a2,16(sp)
800001b4:	00d12a23          	sw	a3,20(sp)
800001b8:	00002097          	auipc	ra,0x2
800001bc:	e5008093          	addi	ra,ra,-432 # 80002008 <test_A3_data>
800001c0:	00002117          	auipc	sp,0x2
800001c4:	ea010113          	addi	sp,sp,-352 # 80002060 <test_A3_res>
800001c8:	0000a683          	lw	a3,0(ra)
800001cc:	00000713          	li	a4,0
800001d0:	00100793          	li	a5,1
800001d4:	fff00813          	li	a6,-1
800001d8:	800008b7          	lui	a7,0x80000
800001dc:	fff88893          	addi	a7,a7,-1 # 7fffffff <_end+0xffffdf1f>
800001e0:	80000937          	lui	s2,0x80000
800001e4:	40e68733          	sub	a4,a3,a4
800001e8:	40f687b3          	sub	a5,a3,a5
800001ec:	41068833          	sub	a6,a3,a6
800001f0:	411688b3          	sub	a7,a3,a7
800001f4:	41268933          	sub	s2,a3,s2
800001f8:	00d12023          	sw	a3,0(sp)
800001fc:	00e12223          	sw	a4,4(sp)
80000200:	00f12423          	sw	a5,8(sp)
80000204:	01012623          	sw	a6,12(sp)
80000208:	01112823          	sw	a7,16(sp)
8000020c:	01212a23          	sw	s2,20(sp)
80000210:	00002097          	auipc	ra,0x2
80000214:	dfc08093          	addi	ra,ra,-516 # 8000200c <test_A4_data>
80000218:	00002117          	auipc	sp,0x2
8000021c:	e6010113          	addi	sp,sp,-416 # 80002078 <test_A4_res>
80000220:	0000a903          	lw	s2,0(ra)
80000224:	00000993          	li	s3,0
80000228:	00100a13          	li	s4,1
8000022c:	fff00a93          	li	s5,-1
80000230:	80000b37          	lui	s6,0x80000
80000234:	fffb0b13          	addi	s6,s6,-1 # 7fffffff <_end+0xffffdf1f>
80000238:	80000bb7          	lui	s7,0x80000
8000023c:	413909b3          	sub	s3,s2,s3
80000240:	41490a33          	sub	s4,s2,s4
80000244:	41590ab3          	sub	s5,s2,s5
80000248:	41690b33          	sub	s6,s2,s6
8000024c:	41790bb3          	sub	s7,s2,s7
80000250:	01212023          	sw	s2,0(sp)
80000254:	01312223          	sw	s3,4(sp)
80000258:	01412423          	sw	s4,8(sp)
8000025c:	01512623          	sw	s5,12(sp)
80000260:	01612823          	sw	s6,16(sp)
80000264:	01712a23          	sw	s7,20(sp)
80000268:	00002097          	auipc	ra,0x2
8000026c:	da808093          	addi	ra,ra,-600 # 80002010 <test_A5_data>
80000270:	00002117          	auipc	sp,0x2
80000274:	e2010113          	addi	sp,sp,-480 # 80002090 <test_A5_res>
80000278:	0000ab83          	lw	s7,0(ra)
8000027c:	00000c13          	li	s8,0
80000280:	00100c93          	li	s9,1
80000284:	fff00d13          	li	s10,-1
80000288:	80000db7          	lui	s11,0x80000
8000028c:	fffd8d93          	addi	s11,s11,-1 # 7fffffff <_end+0xffffdf1f>
80000290:	80000e37          	lui	t3,0x80000
80000294:	418b8c33          	sub	s8,s7,s8
80000298:	419b8cb3          	sub	s9,s7,s9
8000029c:	41ab8d33          	sub	s10,s7,s10
800002a0:	41bb8db3          	sub	s11,s7,s11
800002a4:	41cb8e33          	sub	t3,s7,t3
800002a8:	01712023          	sw	s7,0(sp)
800002ac:	01812223          	sw	s8,4(sp)
800002b0:	01912423          	sw	s9,8(sp)
800002b4:	01a12623          	sw	s10,12(sp)
800002b8:	01b12823          	sw	s11,16(sp)
800002bc:	01c12a23          	sw	t3,20(sp)
800002c0:	00002c97          	auipc	s9,0x2
800002c4:	d54c8c93          	addi	s9,s9,-684 # 80002014 <test_B_data>
800002c8:	00002d17          	auipc	s10,0x2
800002cc:	de0d0d13          	addi	s10,s10,-544 # 800020a8 <test_B_res>
800002d0:	000cae03          	lw	t3,0(s9)
800002d4:	00100d93          	li	s11,1
800002d8:	41be0eb3          	sub	t4,t3,s11
800002dc:	41be8f33          	sub	t5,t4,s11
800002e0:	41bf0fb3          	sub	t6,t5,s11
800002e4:	41bf80b3          	sub	ra,t6,s11
800002e8:	41b08133          	sub	sp,ra,s11
800002ec:	41b101b3          	sub	gp,sp,s11
800002f0:	01bd2023          	sw	s11,0(s10)
800002f4:	01cd2223          	sw	t3,4(s10)
800002f8:	01dd2423          	sw	t4,8(s10)
800002fc:	01ed2623          	sw	t5,12(s10)
80000300:	01fd2823          	sw	t6,16(s10)
80000304:	001d2a23          	sw	ra,20(s10)
80000308:	002d2c23          	sw	sp,24(s10)
8000030c:	003d2e23          	sw	gp,28(s10)
80000310:	00002097          	auipc	ra,0x2
80000314:	d0808093          	addi	ra,ra,-760 # 80002018 <test_C_data>
80000318:	00002117          	auipc	sp,0x2
8000031c:	db010113          	addi	sp,sp,-592 # 800020c8 <test_C_res>
80000320:	0000ae03          	lw	t3,0(ra)
80000324:	f7ff9db7          	lui	s11,0xf7ff9
80000328:	818d8d93          	addi	s11,s11,-2024 # f7ff8818 <_end+0x77ff6738>
8000032c:	41be0033          	sub	zero,t3,s11
80000330:	00012023          	sw	zero,0(sp)
80000334:	00002097          	auipc	ra,0x2
80000338:	ce808093          	addi	ra,ra,-792 # 8000201c <test_D_data>
8000033c:	00002117          	auipc	sp,0x2
80000340:	d9010113          	addi	sp,sp,-624 # 800020cc <test_D_res>
80000344:	0000ae03          	lw	t3,0(ra)
80000348:	f7ff9db7          	lui	s11,0xf7ff9
8000034c:	818d8d93          	addi	s11,s11,-2024 # f7ff8818 <_end+0x77ff6738>
80000350:	41be0033          	sub	zero,t3,s11
80000354:	400002b3          	neg	t0,zero
80000358:	00012023          	sw	zero,0(sp)
8000035c:	00512223          	sw	t0,4(sp)
80000360:	00002097          	auipc	ra,0x2
80000364:	cc008093          	addi	ra,ra,-832 # 80002020 <test_E_data>
80000368:	00002117          	auipc	sp,0x2
8000036c:	d6c10113          	addi	sp,sp,-660 # 800020d4 <test_E_res>
80000370:	0000a183          	lw	gp,0(ra)
80000374:	40018233          	sub	tp,gp,zero
80000378:	400202b3          	sub	t0,tp,zero
8000037c:	40500333          	neg	t1,t0
80000380:	40030733          	sub	a4,t1,zero
80000384:	400707b3          	sub	a5,a4,zero
80000388:	40078833          	sub	a6,a5,zero
8000038c:	41000cb3          	neg	s9,a6
80000390:	41900d33          	neg	s10,s9
80000394:	400d0db3          	sub	s11,s10,zero
80000398:	00412023          	sw	tp,0(sp)
8000039c:	01a12223          	sw	s10,4(sp)
800003a0:	01b12423          	sw	s11,8(sp)
800003a4:	0ff0000f          	fence
800003a8:	00100193          	li	gp,1
800003ac:	00000073          	ecall

800003b0 <end_testcode>:
800003b0:	c0001073          	unimp
	...

Disassembly of section .tohost:

80001000 <tohost>:
	...

80001100 <fromhost>:
	...

Disassembly of section .data:

80002000 <test_A1_data>:
80002000:	0000                	unimp
	...

80002004 <test_A2_data>:
80002004:	0001                	nop
	...

80002008 <test_A3_data>:
80002008:	ffff                	0xffff
8000200a:	ffff                	0xffff

8000200c <test_A4_data>:
8000200c:	ffff                	0xffff
8000200e:	7fff                	0x7fff

80002010 <test_A5_data>:
80002010:	0000                	unimp
80002012:	8000                	0x8000

80002014 <test_B_data>:
80002014:	abcd                	j	80002606 <_end+0x526>
	...

80002018 <test_C_data>:
80002018:	5678                	lw	a4,108(a2)
8000201a:	1234                	addi	a3,sp,296

8000201c <test_D_data>:
8000201c:	ba98                	fsd	fa4,48(a3)
8000201e:	fedc                	fsw	fa5,60(a3)

80002020 <test_E_data>:
80002020:	5814                	lw	a3,48(s0)
80002022:	3692                	fld	fa3,288(sp)
	...

80002030 <begin_signature>:
80002030:	ffff                	0xffff
80002032:	ffff                	0xffff
80002034:	ffff                	0xffff
80002036:	ffff                	0xffff
80002038:	ffff                	0xffff
8000203a:	ffff                	0xffff
8000203c:	ffff                	0xffff
8000203e:	ffff                	0xffff
80002040:	ffff                	0xffff
80002042:	ffff                	0xffff
80002044:	ffff                	0xffff
80002046:	ffff                	0xffff

80002048 <test_A2_res>:
80002048:	ffff                	0xffff
8000204a:	ffff                	0xffff
8000204c:	ffff                	0xffff
8000204e:	ffff                	0xffff
80002050:	ffff                	0xffff
80002052:	ffff                	0xffff
80002054:	ffff                	0xffff
80002056:	ffff                	0xffff
80002058:	ffff                	0xffff
8000205a:	ffff                	0xffff
8000205c:	ffff                	0xffff
8000205e:	ffff                	0xffff

80002060 <test_A3_res>:
80002060:	ffff                	0xffff
80002062:	ffff                	0xffff
80002064:	ffff                	0xffff
80002066:	ffff                	0xffff
80002068:	ffff                	0xffff
8000206a:	ffff                	0xffff
8000206c:	ffff                	0xffff
8000206e:	ffff                	0xffff
80002070:	ffff                	0xffff
80002072:	ffff                	0xffff
80002074:	ffff                	0xffff
80002076:	ffff                	0xffff

80002078 <test_A4_res>:
80002078:	ffff                	0xffff
8000207a:	ffff                	0xffff
8000207c:	ffff                	0xffff
8000207e:	ffff                	0xffff
80002080:	ffff                	0xffff
80002082:	ffff                	0xffff
80002084:	ffff                	0xffff
80002086:	ffff                	0xffff
80002088:	ffff                	0xffff
8000208a:	ffff                	0xffff
8000208c:	ffff                	0xffff
8000208e:	ffff                	0xffff

80002090 <test_A5_res>:
80002090:	ffff                	0xffff
80002092:	ffff                	0xffff
80002094:	ffff                	0xffff
80002096:	ffff                	0xffff
80002098:	ffff                	0xffff
8000209a:	ffff                	0xffff
8000209c:	ffff                	0xffff
8000209e:	ffff                	0xffff
800020a0:	ffff                	0xffff
800020a2:	ffff                	0xffff
800020a4:	ffff                	0xffff
800020a6:	ffff                	0xffff

800020a8 <test_B_res>:
800020a8:	ffff                	0xffff
800020aa:	ffff                	0xffff
800020ac:	ffff                	0xffff
800020ae:	ffff                	0xffff
800020b0:	ffff                	0xffff
800020b2:	ffff                	0xffff
800020b4:	ffff                	0xffff
800020b6:	ffff                	0xffff
800020b8:	ffff                	0xffff
800020ba:	ffff                	0xffff
800020bc:	ffff                	0xffff
800020be:	ffff                	0xffff
800020c0:	ffff                	0xffff
800020c2:	ffff                	0xffff
800020c4:	ffff                	0xffff
800020c6:	ffff                	0xffff

800020c8 <test_C_res>:
800020c8:	ffff                	0xffff
800020ca:	ffff                	0xffff

800020cc <test_D_res>:
800020cc:	ffff                	0xffff
800020ce:	ffff                	0xffff
800020d0:	ffff                	0xffff
800020d2:	ffff                	0xffff

800020d4 <test_E_res>:
800020d4:	ffff                	0xffff
800020d6:	ffff                	0xffff
800020d8:	ffff                	0xffff
800020da:	ffff                	0xffff
800020dc:	ffff                	0xffff
800020de:	ffff                	0xffff
