
/home/lenovo/riscv-compliance/work//I-SW-01.elf:     file format elf32-littleriscv


Disassembly of section .text.init:

80000000 <_start>:
80000000:	04c0006f          	j	8000004c <reset_vector>

80000004 <trap_vector>:
80000004:	34202f73          	csrr	t5,mcause
80000008:	00800f93          	li	t6,8
8000000c:	03ff0a63          	beq	t5,t6,80000040 <write_tohost>
80000010:	00900f93          	li	t6,9
80000014:	03ff0663          	beq	t5,t6,80000040 <write_tohost>
80000018:	00b00f93          	li	t6,11
8000001c:	03ff0263          	beq	t5,t6,80000040 <write_tohost>
80000020:	80000f17          	auipc	t5,0x80000
80000024:	fe0f0f13          	addi	t5,t5,-32 # 0 <_start-0x80000000>
80000028:	000f0463          	beqz	t5,80000030 <trap_vector+0x2c>
8000002c:	000f0067          	jr	t5
80000030:	34202f73          	csrr	t5,mcause
80000034:	000f5463          	bgez	t5,8000003c <handle_exception>
80000038:	0040006f          	j	8000003c <handle_exception>

8000003c <handle_exception>:
8000003c:	5391e193          	ori	gp,gp,1337

80000040 <write_tohost>:
80000040:	00001f17          	auipc	t5,0x1
80000044:	fc3f2023          	sw	gp,-64(t5) # 80001000 <tohost>
80000048:	ff9ff06f          	j	80000040 <write_tohost>

8000004c <reset_vector>:
8000004c:	f1402573          	csrr	a0,mhartid
80000050:	00051063          	bnez	a0,80000050 <reset_vector+0x4>
80000054:	00000297          	auipc	t0,0x0
80000058:	01028293          	addi	t0,t0,16 # 80000064 <reset_vector+0x18>
8000005c:	30529073          	csrw	mtvec,t0
80000060:	18005073          	csrwi	satp,0
80000064:	00000297          	auipc	t0,0x0
80000068:	01c28293          	addi	t0,t0,28 # 80000080 <reset_vector+0x34>
8000006c:	30529073          	csrw	mtvec,t0
80000070:	fff00293          	li	t0,-1
80000074:	3b029073          	csrw	pmpaddr0,t0
80000078:	01f00293          	li	t0,31
8000007c:	3a029073          	csrw	pmpcfg0,t0
80000080:	00000297          	auipc	t0,0x0
80000084:	01828293          	addi	t0,t0,24 # 80000098 <reset_vector+0x4c>
80000088:	30529073          	csrw	mtvec,t0
8000008c:	30205073          	csrwi	medeleg,0
80000090:	30305073          	csrwi	mideleg,0
80000094:	30405073          	csrwi	mie,0
80000098:	00000193          	li	gp,0
8000009c:	00000297          	auipc	t0,0x0
800000a0:	f6828293          	addi	t0,t0,-152 # 80000004 <trap_vector>
800000a4:	30529073          	csrw	mtvec,t0
800000a8:	00100513          	li	a0,1
800000ac:	01f51513          	slli	a0,a0,0x1f
800000b0:	00054863          	bltz	a0,800000c0 <reset_vector+0x74>
800000b4:	0ff0000f          	fence
800000b8:	00100193          	li	gp,1
800000bc:	00000073          	ecall
800000c0:	80000297          	auipc	t0,0x80000
800000c4:	f4028293          	addi	t0,t0,-192 # 0 <_start-0x80000000>
800000c8:	00028e63          	beqz	t0,800000e4 <reset_vector+0x98>
800000cc:	10529073          	csrw	stvec,t0
800000d0:	0000b2b7          	lui	t0,0xb
800000d4:	10928293          	addi	t0,t0,265 # b109 <_start-0x7fff4ef7>
800000d8:	30229073          	csrw	medeleg,t0
800000dc:	30202373          	csrr	t1,medeleg
800000e0:	f4629ee3          	bne	t0,t1,8000003c <handle_exception>
800000e4:	30005073          	csrwi	mstatus,0
800000e8:	00002537          	lui	a0,0x2
800000ec:	80050513          	addi	a0,a0,-2048 # 1800 <_start-0x7fffe800>
800000f0:	30052073          	csrs	mstatus,a0
800000f4:	00000297          	auipc	t0,0x0
800000f8:	01428293          	addi	t0,t0,20 # 80000108 <begin_testcode>
800000fc:	34129073          	csrw	mepc,t0
80000100:	f1402573          	csrr	a0,mhartid
80000104:	30200073          	mret

80000108 <begin_testcode>:
80000108:	00002097          	auipc	ra,0x2
8000010c:	f0808093          	addi	ra,ra,-248 # 80002010 <begin_signature>
80000110:	11f1f137          	lui	sp,0x11f1f
80000114:	22210113          	addi	sp,sp,546 # 11f1f222 <_start-0x6e0e0dde>
80000118:	0020a023          	sw	sp,0(ra)
8000011c:	00002297          	auipc	t0,0x2
80000120:	ef928293          	addi	t0,t0,-263 # 80002015 <test_A2_res+0x1>
80000124:	f3334cb7          	lui	s9,0xf3334
80000128:	4f4c8c93          	addi	s9,s9,1268 # f33344f4 <_end+0x733324a4>
8000012c:	ff92afa3          	sw	s9,-1(t0)
80000130:	00002417          	auipc	s0,0x2
80000134:	ee740413          	addi	s0,s0,-281 # 80002017 <test_A2_res+0x3>
80000138:	55f5ffb7          	lui	t6,0x55f5f
8000013c:	666f8f93          	addi	t6,t6,1638 # 55f5f666 <_start-0x2a0a099a>
80000140:	01f420a3          	sw	t6,1(s0)
80000144:	00002597          	auipc	a1,0x2
80000148:	6d858593          	addi	a1,a1,1752 # 8000281c <_end+0x7cc>
8000014c:	f7779637          	lui	a2,0xf7779
80000150:	8f860613          	addi	a2,a2,-1800 # f77788f8 <_end+0x777768a8>
80000154:	80c5a023          	sw	a2,-2048(a1)
80000158:	00001717          	auipc	a4,0x1
8000015c:	6c970713          	addi	a4,a4,1737 # 80001821 <fromhost+0x721>
80000160:	990917b7          	lui	a5,0x99091
80000164:	aaa78793          	addi	a5,a5,-1366 # 99090aaa <_end+0x1908ea5a>
80000168:	7ef72fa3          	sw	a5,2047(a4)
8000016c:	00002897          	auipc	a7,0x2
80000170:	ebc88893          	addi	a7,a7,-324 # 80002028 <test_B_res>
80000174:	0bbbd937          	lui	s2,0xbbbd
80000178:	c0c90913          	addi	s2,s2,-1012 # bbbcc0c <_start-0x744433f4>
8000017c:	dd0d19b7          	lui	s3,0xdd0d1
80000180:	eee98993          	addi	s3,s3,-274 # dd0d0eee <_end+0x5d0cee9e>
80000184:	0fff0a37          	lui	s4,0xfff0
80000188:	0f0a0a13          	addi	s4,s4,240 # fff00f0 <_start-0x7000ff10>
8000018c:	ff28ae23          	sw	s2,-4(a7)
80000190:	0138a023          	sw	s3,0(a7)
80000194:	0148a223          	sw	s4,4(a7)
80000198:	00002b17          	auipc	s6,0x2
8000019c:	e98b0b13          	addi	s6,s6,-360 # 80002030 <test_C_res>
800001a0:	12345037          	lui	zero,0x12345
800001a4:	67800013          	li	zero,1656
800001a8:	000b2023          	sw	zero,0(s6)
800001ac:	00002a97          	auipc	s5,0x2
800001b0:	e54a8a93          	addi	s5,s5,-428 # 80002000 <test_D1_data>
800001b4:	112239b7          	lui	s3,0x11223
800001b8:	34498993          	addi	s3,s3,836 # 11223344 <_start-0x6eddccbc>
800001bc:	000aab83          	lw	s7,0(s5)
800001c0:	013ba023          	sw	s3,0(s7)
800001c4:	00002b97          	auipc	s7,0x2
800001c8:	e40b8b93          	addi	s7,s7,-448 # 80002004 <test_D2_data>
800001cc:	00002c17          	auipc	s8,0x2
800001d0:	e6cc0c13          	addi	s8,s8,-404 # 80002038 <test_D2_res>
800001d4:	000bac83          	lw	s9,0(s7)
800001d8:	019c2023          	sw	s9,0(s8)
800001dc:	00002d17          	auipc	s10,0x2
800001e0:	e60d0d13          	addi	s10,s10,-416 # 8000203c <test_E1_res>
800001e4:	76543cb7          	lui	s9,0x76543
800001e8:	210c8c93          	addi	s9,s9,528 # 76543210 <_start-0x9abcdf0>
800001ec:	019d2023          	sw	s9,0(s10)
800001f0:	00000c93          	li	s9,0
800001f4:	00002e17          	auipc	t3,0x2
800001f8:	e4ce0e13          	addi	t3,t3,-436 # 80002040 <test_E2_res>
800001fc:	89abddb7          	lui	s11,0x89abd
80000200:	defd8d93          	addi	s11,s11,-529 # 89abcdef <_end+0x9abad9f>
80000204:	01be2023          	sw	s11,0(t3)
80000208:	ffce0e13          	addi	t3,t3,-4
8000020c:	00002e97          	auipc	t4,0x2
80000210:	e38e8e93          	addi	t4,t4,-456 # 80002044 <test_F_res>
80000214:	14726db7          	lui	s11,0x14726
80000218:	836d8d93          	addi	s11,s11,-1994 # 14725836 <_start-0x6b8da7ca>
8000021c:	01bea023          	sw	s11,0(t4)
80000220:	000eaf03          	lw	t5,0(t4)
80000224:	01eea223          	sw	t5,4(t4)
80000228:	00002097          	auipc	ra,0x2
8000022c:	e2408093          	addi	ra,ra,-476 # 8000204c <test_G_res>
80000230:	96385137          	lui	sp,0x96385
80000234:	20110113          	addi	sp,sp,513 # 96385201 <_end+0x163831b1>
80000238:	258151b7          	lui	gp,0x25815
8000023c:	96318193          	addi	gp,gp,-1693 # 25814963 <_start-0x5a7eb69d>
80000240:	0020a023          	sw	sp,0(ra)
80000244:	0030a023          	sw	gp,0(ra)
80000248:	0ff0000f          	fence
8000024c:	00100193          	li	gp,1
80000250:	00000073          	ecall

80000254 <end_testcode>:
80000254:	c0001073          	unimp
	...

Disassembly of section .tohost:

80001000 <tohost>:
	...

80001100 <fromhost>:
	...

Disassembly of section .data:

80002000 <test_D1_data>:
80002000:	2034                	fld	fa3,64(s0)
80002002:	8000                	0x8000

80002004 <test_D2_data>:
80002004:	def0                	sw	a2,124(a3)
80002006:	9abc                	0x9abc
	...

80002010 <begin_signature>:
80002010:	ffff                	0xffff
80002012:	ffff                	0xffff

80002014 <test_A2_res>:
80002014:	ffff                	0xffff
80002016:	ffff                	0xffff

80002018 <test_A3_res>:
80002018:	ffff                	0xffff
8000201a:	ffff                	0xffff

8000201c <test_A4_res>:
8000201c:	ffff                	0xffff
8000201e:	ffff                	0xffff

80002020 <test_A5_res>:
80002020:	ffff                	0xffff
80002022:	ffff                	0xffff
80002024:	ffff                	0xffff
80002026:	ffff                	0xffff

80002028 <test_B_res>:
80002028:	ffff                	0xffff
8000202a:	ffff                	0xffff
8000202c:	ffff                	0xffff
8000202e:	ffff                	0xffff

80002030 <test_C_res>:
80002030:	ffff                	0xffff
80002032:	ffff                	0xffff

80002034 <test_D1_res>:
80002034:	ffff                	0xffff
80002036:	ffff                	0xffff

80002038 <test_D2_res>:
80002038:	ffff                	0xffff
8000203a:	ffff                	0xffff

8000203c <test_E1_res>:
8000203c:	ffff                	0xffff
8000203e:	ffff                	0xffff

80002040 <test_E2_res>:
80002040:	ffff                	0xffff
80002042:	ffff                	0xffff

80002044 <test_F_res>:
80002044:	ffff                	0xffff
80002046:	ffff                	0xffff
80002048:	ffff                	0xffff
8000204a:	ffff                	0xffff

8000204c <test_G_res>:
8000204c:	ffff                	0xffff
8000204e:	ffff                	0xffff
