
/home/howardsu/riscv-compliance/work/rv32ui/sltiu.elf:     file format elf32-littleriscv


Disassembly of section .text.init:

80000000 <_start>:
80000000:	04c0006f          	j	8000004c <reset_vector>

80000004 <trap_vector>:
80000004:	34202f73          	csrr	t5,mcause
80000008:	00800f93          	li	t6,8
8000000c:	03ff0a63          	beq	t5,t6,80000040 <write_tohost>
80000010:	00900f93          	li	t6,9
80000014:	03ff0663          	beq	t5,t6,80000040 <write_tohost>
80000018:	00b00f93          	li	t6,11
8000001c:	03ff0263          	beq	t5,t6,80000040 <write_tohost>
80000020:	80000f17          	auipc	t5,0x80000
80000024:	fe0f0f13          	addi	t5,t5,-32 # 0 <_start-0x80000000>
80000028:	000f0463          	beqz	t5,80000030 <trap_vector+0x2c>
8000002c:	000f0067          	jr	t5
80000030:	34202f73          	csrr	t5,mcause
80000034:	000f5463          	bgez	t5,8000003c <handle_exception>
80000038:	0040006f          	j	8000003c <handle_exception>

8000003c <handle_exception>:
8000003c:	5391e193          	ori	gp,gp,1337

80000040 <write_tohost>:
80000040:	00001f17          	auipc	t5,0x1
80000044:	fc3f2023          	sw	gp,-64(t5) # 80001000 <tohost>
80000048:	ff9ff06f          	j	80000040 <write_tohost>

8000004c <reset_vector>:
8000004c:	f1402573          	csrr	a0,mhartid
80000050:	00051063          	bnez	a0,80000050 <reset_vector+0x4>
80000054:	00000297          	auipc	t0,0x0
80000058:	01028293          	addi	t0,t0,16 # 80000064 <reset_vector+0x18>
8000005c:	30529073          	csrw	mtvec,t0
80000060:	18005073          	csrwi	satp,0
80000064:	00000297          	auipc	t0,0x0
80000068:	01c28293          	addi	t0,t0,28 # 80000080 <reset_vector+0x34>
8000006c:	30529073          	csrw	mtvec,t0
80000070:	fff00293          	li	t0,-1
80000074:	3b029073          	csrw	pmpaddr0,t0
80000078:	01f00293          	li	t0,31
8000007c:	3a029073          	csrw	pmpcfg0,t0
80000080:	00000297          	auipc	t0,0x0
80000084:	01828293          	addi	t0,t0,24 # 80000098 <reset_vector+0x4c>
80000088:	30529073          	csrw	mtvec,t0
8000008c:	30205073          	csrwi	medeleg,0
80000090:	30305073          	csrwi	mideleg,0
80000094:	30405073          	csrwi	mie,0
80000098:	00000193          	li	gp,0
8000009c:	00000297          	auipc	t0,0x0
800000a0:	f6828293          	addi	t0,t0,-152 # 80000004 <trap_vector>
800000a4:	30529073          	csrw	mtvec,t0
800000a8:	00100513          	li	a0,1
800000ac:	01f51513          	slli	a0,a0,0x1f
800000b0:	00054e63          	bltz	a0,800000cc <reset_vector+0x80>
800000b4:	0ff0000f          	fence
800000b8:	00100193          	li	gp,1
800000bc:	00002e17          	auipc	t3,0x2
800000c0:	f44e0e13          	addi	t3,t3,-188 # 80002000 <begin_signature>
800000c4:	003e2023          	sw	gp,0(t3)
800000c8:	00000073          	ecall
800000cc:	80000297          	auipc	t0,0x80000
800000d0:	f3428293          	addi	t0,t0,-204 # 0 <_start-0x80000000>
800000d4:	00028e63          	beqz	t0,800000f0 <reset_vector+0xa4>
800000d8:	10529073          	csrw	stvec,t0
800000dc:	0000b2b7          	lui	t0,0xb
800000e0:	10928293          	addi	t0,t0,265 # b109 <_start-0x7fff4ef7>
800000e4:	30229073          	csrw	medeleg,t0
800000e8:	30202373          	csrr	t1,medeleg
800000ec:	f46298e3          	bne	t0,t1,8000003c <handle_exception>
800000f0:	30005073          	csrwi	mstatus,0
800000f4:	00000297          	auipc	t0,0x0
800000f8:	01428293          	addi	t0,t0,20 # 80000108 <begin_testcode>
800000fc:	34129073          	csrw	mepc,t0
80000100:	f1402573          	csrr	a0,mhartid
80000104:	30200073          	mret

80000108 <begin_testcode>:
80000108:	00000093          	li	ra,0
8000010c:	0000bf13          	sltiu	t5,ra,0
80000110:	00000e93          	li	t4,0
80000114:	00200193          	li	gp,2
80000118:	00002e17          	auipc	t3,0x2
8000011c:	ee8e0e13          	addi	t3,t3,-280 # 80002000 <begin_signature>
80000120:	01ee2423          	sw	t5,8(t3)
80000124:	37df1c63          	bne	t5,t4,8000049c <fail>

80000128 <test_3>:
80000128:	00100093          	li	ra,1
8000012c:	0010bf13          	seqz	t5,ra
80000130:	00000e93          	li	t4,0
80000134:	00300193          	li	gp,3
80000138:	00002e17          	auipc	t3,0x2
8000013c:	ec8e0e13          	addi	t3,t3,-312 # 80002000 <begin_signature>
80000140:	01ee2623          	sw	t5,12(t3)
80000144:	35df1c63          	bne	t5,t4,8000049c <fail>

80000148 <test_4>:
80000148:	00300093          	li	ra,3
8000014c:	0070bf13          	sltiu	t5,ra,7
80000150:	00100e93          	li	t4,1
80000154:	00400193          	li	gp,4
80000158:	00002e17          	auipc	t3,0x2
8000015c:	ea8e0e13          	addi	t3,t3,-344 # 80002000 <begin_signature>
80000160:	01ee2823          	sw	t5,16(t3)
80000164:	33df1c63          	bne	t5,t4,8000049c <fail>

80000168 <test_5>:
80000168:	00700093          	li	ra,7
8000016c:	0030bf13          	sltiu	t5,ra,3
80000170:	00000e93          	li	t4,0
80000174:	00500193          	li	gp,5
80000178:	00002e17          	auipc	t3,0x2
8000017c:	e88e0e13          	addi	t3,t3,-376 # 80002000 <begin_signature>
80000180:	01ee2a23          	sw	t5,20(t3)
80000184:	31df1c63          	bne	t5,t4,8000049c <fail>

80000188 <test_6>:
80000188:	00000093          	li	ra,0
8000018c:	8000bf13          	sltiu	t5,ra,-2048
80000190:	00100e93          	li	t4,1
80000194:	00600193          	li	gp,6
80000198:	00002e17          	auipc	t3,0x2
8000019c:	e68e0e13          	addi	t3,t3,-408 # 80002000 <begin_signature>
800001a0:	01ee2c23          	sw	t5,24(t3)
800001a4:	2fdf1c63          	bne	t5,t4,8000049c <fail>

800001a8 <test_7>:
800001a8:	800000b7          	lui	ra,0x80000
800001ac:	0000bf13          	sltiu	t5,ra,0
800001b0:	00000e93          	li	t4,0
800001b4:	00700193          	li	gp,7
800001b8:	00002e17          	auipc	t3,0x2
800001bc:	e48e0e13          	addi	t3,t3,-440 # 80002000 <begin_signature>
800001c0:	01ee2e23          	sw	t5,28(t3)
800001c4:	2ddf1c63          	bne	t5,t4,8000049c <fail>

800001c8 <test_8>:
800001c8:	800000b7          	lui	ra,0x80000
800001cc:	8000bf13          	sltiu	t5,ra,-2048
800001d0:	00100e93          	li	t4,1
800001d4:	00800193          	li	gp,8
800001d8:	00002e17          	auipc	t3,0x2
800001dc:	e28e0e13          	addi	t3,t3,-472 # 80002000 <begin_signature>
800001e0:	03ee2023          	sw	t5,32(t3)
800001e4:	2bdf1c63          	bne	t5,t4,8000049c <fail>

800001e8 <test_9>:
800001e8:	00000093          	li	ra,0
800001ec:	7ff0bf13          	sltiu	t5,ra,2047
800001f0:	00100e93          	li	t4,1
800001f4:	00900193          	li	gp,9
800001f8:	00002e17          	auipc	t3,0x2
800001fc:	e08e0e13          	addi	t3,t3,-504 # 80002000 <begin_signature>
80000200:	03ee2223          	sw	t5,36(t3)
80000204:	29df1c63          	bne	t5,t4,8000049c <fail>

80000208 <test_10>:
80000208:	800000b7          	lui	ra,0x80000
8000020c:	fff08093          	addi	ra,ra,-1 # 7fffffff <_end+0xffffddfb>
80000210:	0000bf13          	sltiu	t5,ra,0
80000214:	00000e93          	li	t4,0
80000218:	00a00193          	li	gp,10
8000021c:	00002e17          	auipc	t3,0x2
80000220:	de4e0e13          	addi	t3,t3,-540 # 80002000 <begin_signature>
80000224:	03ee2423          	sw	t5,40(t3)
80000228:	27df1a63          	bne	t5,t4,8000049c <fail>

8000022c <test_11>:
8000022c:	800000b7          	lui	ra,0x80000
80000230:	fff08093          	addi	ra,ra,-1 # 7fffffff <_end+0xffffddfb>
80000234:	7ff0bf13          	sltiu	t5,ra,2047
80000238:	00000e93          	li	t4,0
8000023c:	00b00193          	li	gp,11
80000240:	00002e17          	auipc	t3,0x2
80000244:	dc0e0e13          	addi	t3,t3,-576 # 80002000 <begin_signature>
80000248:	03ee2623          	sw	t5,44(t3)
8000024c:	25df1863          	bne	t5,t4,8000049c <fail>

80000250 <test_12>:
80000250:	800000b7          	lui	ra,0x80000
80000254:	7ff0bf13          	sltiu	t5,ra,2047
80000258:	00000e93          	li	t4,0
8000025c:	00c00193          	li	gp,12
80000260:	00002e17          	auipc	t3,0x2
80000264:	da0e0e13          	addi	t3,t3,-608 # 80002000 <begin_signature>
80000268:	03ee2823          	sw	t5,48(t3)
8000026c:	23df1863          	bne	t5,t4,8000049c <fail>

80000270 <test_13>:
80000270:	800000b7          	lui	ra,0x80000
80000274:	fff08093          	addi	ra,ra,-1 # 7fffffff <_end+0xffffddfb>
80000278:	8000bf13          	sltiu	t5,ra,-2048
8000027c:	00100e93          	li	t4,1
80000280:	00d00193          	li	gp,13
80000284:	00002e17          	auipc	t3,0x2
80000288:	d7ce0e13          	addi	t3,t3,-644 # 80002000 <begin_signature>
8000028c:	03ee2a23          	sw	t5,52(t3)
80000290:	21df1663          	bne	t5,t4,8000049c <fail>

80000294 <test_14>:
80000294:	00000093          	li	ra,0
80000298:	fff0bf13          	sltiu	t5,ra,-1
8000029c:	00100e93          	li	t4,1
800002a0:	00e00193          	li	gp,14
800002a4:	00002e17          	auipc	t3,0x2
800002a8:	d5ce0e13          	addi	t3,t3,-676 # 80002000 <begin_signature>
800002ac:	03ee2c23          	sw	t5,56(t3)
800002b0:	1fdf1663          	bne	t5,t4,8000049c <fail>

800002b4 <test_15>:
800002b4:	fff00093          	li	ra,-1
800002b8:	0010bf13          	seqz	t5,ra
800002bc:	00000e93          	li	t4,0
800002c0:	00f00193          	li	gp,15
800002c4:	00002e17          	auipc	t3,0x2
800002c8:	d3ce0e13          	addi	t3,t3,-708 # 80002000 <begin_signature>
800002cc:	03ee2e23          	sw	t5,60(t3)
800002d0:	1ddf1663          	bne	t5,t4,8000049c <fail>

800002d4 <test_16>:
800002d4:	fff00093          	li	ra,-1
800002d8:	fff0bf13          	sltiu	t5,ra,-1
800002dc:	00000e93          	li	t4,0
800002e0:	01000193          	li	gp,16
800002e4:	00002e17          	auipc	t3,0x2
800002e8:	d1ce0e13          	addi	t3,t3,-740 # 80002000 <begin_signature>
800002ec:	05ee2023          	sw	t5,64(t3)
800002f0:	1bdf1663          	bne	t5,t4,8000049c <fail>

800002f4 <test_17>:
800002f4:	00b00093          	li	ra,11
800002f8:	00d0b093          	sltiu	ra,ra,13
800002fc:	00100e93          	li	t4,1
80000300:	01100193          	li	gp,17
80000304:	00002e17          	auipc	t3,0x2
80000308:	cfce0e13          	addi	t3,t3,-772 # 80002000 <begin_signature>
8000030c:	041e2223          	sw	ra,68(t3)
80000310:	19d09663          	bne	ra,t4,8000049c <fail>

80000314 <test_18>:
80000314:	00000213          	li	tp,0
80000318:	00f00093          	li	ra,15
8000031c:	00a0bf13          	sltiu	t5,ra,10
80000320:	000f0313          	mv	t1,t5
80000324:	00120213          	addi	tp,tp,1 # 1 <_start-0x7fffffff>
80000328:	00200293          	li	t0,2
8000032c:	fe5216e3          	bne	tp,t0,80000318 <test_18+0x4>
80000330:	00000e93          	li	t4,0
80000334:	01200193          	li	gp,18
80000338:	00002e17          	auipc	t3,0x2
8000033c:	cc8e0e13          	addi	t3,t3,-824 # 80002000 <begin_signature>
80000340:	046e2423          	sw	t1,72(t3)
80000344:	15d31c63          	bne	t1,t4,8000049c <fail>

80000348 <test_19>:
80000348:	00000213          	li	tp,0
8000034c:	00a00093          	li	ra,10
80000350:	0100bf13          	sltiu	t5,ra,16
80000354:	00000013          	nop
80000358:	000f0313          	mv	t1,t5
8000035c:	00120213          	addi	tp,tp,1 # 1 <_start-0x7fffffff>
80000360:	00200293          	li	t0,2
80000364:	fe5214e3          	bne	tp,t0,8000034c <test_19+0x4>
80000368:	00100e93          	li	t4,1
8000036c:	01300193          	li	gp,19
80000370:	00002e17          	auipc	t3,0x2
80000374:	c90e0e13          	addi	t3,t3,-880 # 80002000 <begin_signature>
80000378:	046e2623          	sw	t1,76(t3)
8000037c:	13d31063          	bne	t1,t4,8000049c <fail>

80000380 <test_20>:
80000380:	00000213          	li	tp,0
80000384:	01000093          	li	ra,16
80000388:	0090bf13          	sltiu	t5,ra,9
8000038c:	00000013          	nop
80000390:	00000013          	nop
80000394:	000f0313          	mv	t1,t5
80000398:	00120213          	addi	tp,tp,1 # 1 <_start-0x7fffffff>
8000039c:	00200293          	li	t0,2
800003a0:	fe5212e3          	bne	tp,t0,80000384 <test_20+0x4>
800003a4:	00000e93          	li	t4,0
800003a8:	01400193          	li	gp,20
800003ac:	00002e17          	auipc	t3,0x2
800003b0:	c54e0e13          	addi	t3,t3,-940 # 80002000 <begin_signature>
800003b4:	046e2823          	sw	t1,80(t3)
800003b8:	0fd31263          	bne	t1,t4,8000049c <fail>

800003bc <test_21>:
800003bc:	00000213          	li	tp,0
800003c0:	00b00093          	li	ra,11
800003c4:	00f0bf13          	sltiu	t5,ra,15
800003c8:	00120213          	addi	tp,tp,1 # 1 <_start-0x7fffffff>
800003cc:	00200293          	li	t0,2
800003d0:	fe5218e3          	bne	tp,t0,800003c0 <test_21+0x4>
800003d4:	00100e93          	li	t4,1
800003d8:	01500193          	li	gp,21
800003dc:	00002e17          	auipc	t3,0x2
800003e0:	c24e0e13          	addi	t3,t3,-988 # 80002000 <begin_signature>
800003e4:	05ee2a23          	sw	t5,84(t3)
800003e8:	0bdf1a63          	bne	t5,t4,8000049c <fail>

800003ec <test_22>:
800003ec:	00000213          	li	tp,0
800003f0:	01100093          	li	ra,17
800003f4:	00000013          	nop
800003f8:	0080bf13          	sltiu	t5,ra,8
800003fc:	00120213          	addi	tp,tp,1 # 1 <_start-0x7fffffff>
80000400:	00200293          	li	t0,2
80000404:	fe5216e3          	bne	tp,t0,800003f0 <test_22+0x4>
80000408:	00000e93          	li	t4,0
8000040c:	01600193          	li	gp,22
80000410:	00002e17          	auipc	t3,0x2
80000414:	bf0e0e13          	addi	t3,t3,-1040 # 80002000 <begin_signature>
80000418:	05ee2c23          	sw	t5,88(t3)
8000041c:	09df1063          	bne	t5,t4,8000049c <fail>

80000420 <test_23>:
80000420:	00000213          	li	tp,0
80000424:	00c00093          	li	ra,12
80000428:	00000013          	nop
8000042c:	00000013          	nop
80000430:	00e0bf13          	sltiu	t5,ra,14
80000434:	00120213          	addi	tp,tp,1 # 1 <_start-0x7fffffff>
80000438:	00200293          	li	t0,2
8000043c:	fe5214e3          	bne	tp,t0,80000424 <test_23+0x4>
80000440:	00100e93          	li	t4,1
80000444:	01700193          	li	gp,23
80000448:	00002e17          	auipc	t3,0x2
8000044c:	bb8e0e13          	addi	t3,t3,-1096 # 80002000 <begin_signature>
80000450:	05ee2e23          	sw	t5,92(t3)
80000454:	05df1463          	bne	t5,t4,8000049c <fail>

80000458 <test_24>:
80000458:	fff03093          	sltiu	ra,zero,-1
8000045c:	00100e93          	li	t4,1
80000460:	01800193          	li	gp,24
80000464:	00002e17          	auipc	t3,0x2
80000468:	b9ce0e13          	addi	t3,t3,-1124 # 80002000 <begin_signature>
8000046c:	061e2023          	sw	ra,96(t3)
80000470:	03d09663          	bne	ra,t4,8000049c <fail>

80000474 <test_25>:
80000474:	00ff00b7          	lui	ra,0xff0
80000478:	0ff08093          	addi	ra,ra,255 # ff00ff <_start-0x7f00ff01>
8000047c:	fff0b013          	sltiu	zero,ra,-1
80000480:	00000e93          	li	t4,0
80000484:	01900193          	li	gp,25
80000488:	00002e17          	auipc	t3,0x2
8000048c:	b78e0e13          	addi	t3,t3,-1160 # 80002000 <begin_signature>
80000490:	060e2223          	sw	zero,100(t3)
80000494:	01d01463          	bne	zero,t4,8000049c <fail>
80000498:	00301e63          	bne	zero,gp,800004b4 <pass>

8000049c <fail>:
8000049c:	0ff0000f          	fence
800004a0:	00100193          	li	gp,1
800004a4:	00002e17          	auipc	t3,0x2
800004a8:	b5ce0e13          	addi	t3,t3,-1188 # 80002000 <begin_signature>
800004ac:	003e2023          	sw	gp,0(t3)
800004b0:	00000073          	ecall

800004b4 <pass>:
800004b4:	0ff0000f          	fence
800004b8:	00100193          	li	gp,1
800004bc:	00002e17          	auipc	t3,0x2
800004c0:	b44e0e13          	addi	t3,t3,-1212 # 80002000 <begin_signature>
800004c4:	003e2023          	sw	gp,0(t3)
800004c8:	00000073          	ecall

800004cc <end_testcode>:
800004cc:	c0001073          	unimp
	...

Disassembly of section .tohost:

80001000 <tohost>:
	...

80001100 <fromhost>:
	...

Disassembly of section .data:

80002000 <begin_signature>:
80002000:	ffff                	0xffff
80002002:	ffff                	0xffff
80002004:	ffff                	0xffff
80002006:	ffff                	0xffff
80002008:	ffff                	0xffff
8000200a:	ffff                	0xffff
8000200c:	ffff                	0xffff
8000200e:	ffff                	0xffff
80002010:	ffff                	0xffff
80002012:	ffff                	0xffff
80002014:	ffff                	0xffff
80002016:	ffff                	0xffff
80002018:	ffff                	0xffff
8000201a:	ffff                	0xffff
8000201c:	ffff                	0xffff
8000201e:	ffff                	0xffff
80002020:	ffff                	0xffff
80002022:	ffff                	0xffff
80002024:	ffff                	0xffff
80002026:	ffff                	0xffff
80002028:	ffff                	0xffff
8000202a:	ffff                	0xffff
8000202c:	ffff                	0xffff
8000202e:	ffff                	0xffff
80002030:	ffff                	0xffff
80002032:	ffff                	0xffff
80002034:	ffff                	0xffff
80002036:	ffff                	0xffff
80002038:	ffff                	0xffff
8000203a:	ffff                	0xffff
8000203c:	ffff                	0xffff
8000203e:	ffff                	0xffff
80002040:	ffff                	0xffff
80002042:	ffff                	0xffff
80002044:	ffff                	0xffff
80002046:	ffff                	0xffff
80002048:	ffff                	0xffff
8000204a:	ffff                	0xffff
8000204c:	ffff                	0xffff
8000204e:	ffff                	0xffff
80002050:	ffff                	0xffff
80002052:	ffff                	0xffff
80002054:	ffff                	0xffff
80002056:	ffff                	0xffff
80002058:	ffff                	0xffff
8000205a:	ffff                	0xffff
8000205c:	ffff                	0xffff
8000205e:	ffff                	0xffff
80002060:	ffff                	0xffff
80002062:	ffff                	0xffff
80002064:	ffff                	0xffff
80002066:	ffff                	0xffff
80002068:	ffff                	0xffff
8000206a:	ffff                	0xffff
8000206c:	ffff                	0xffff
8000206e:	ffff                	0xffff
80002070:	ffff                	0xffff
80002072:	ffff                	0xffff
80002074:	ffff                	0xffff
80002076:	ffff                	0xffff
80002078:	ffff                	0xffff
8000207a:	ffff                	0xffff
8000207c:	ffff                	0xffff
8000207e:	ffff                	0xffff
80002080:	ffff                	0xffff
80002082:	ffff                	0xffff
80002084:	ffff                	0xffff
80002086:	ffff                	0xffff
80002088:	ffff                	0xffff
8000208a:	ffff                	0xffff
8000208c:	ffff                	0xffff
8000208e:	ffff                	0xffff
80002090:	ffff                	0xffff
80002092:	ffff                	0xffff
80002094:	ffff                	0xffff
80002096:	ffff                	0xffff
80002098:	ffff                	0xffff
8000209a:	ffff                	0xffff
8000209c:	ffff                	0xffff
8000209e:	ffff                	0xffff

800020a0 <end_signature>:
	...

80002100 <begin_regstate>:
80002100:	0080                	addi	s0,sp,64
	...

80002200 <end_regstate>:
80002200:	0004                	0x4
	...
